
bin.soft:     file format elf32-sparc


Disassembly of section .text:

00000000 <_stext>:
       0:	a1 48 00 00 	rd  %psr, %l0
       4:	29 00 00 04 	sethi  %hi(0x1000), %l4
       8:	81 c5 20 00 	jmp  %l4
       c:	a7 58 00 00 	rd  %tbr, %l3
      10:	91 d0 20 00 	ta  0
      14:	01 00 00 00 	nop 
      18:	01 00 00 00 	nop 
      1c:	01 00 00 00 	nop 
      20:	91 d0 20 00 	ta  0
      24:	01 00 00 00 	nop 
      28:	01 00 00 00 	nop 
      2c:	01 00 00 00 	nop 
      30:	91 d0 20 00 	ta  0
      34:	01 00 00 00 	nop 
      38:	01 00 00 00 	nop 
      3c:	01 00 00 00 	nop 
      40:	91 d0 20 00 	ta  0
      44:	01 00 00 00 	nop 
      48:	01 00 00 00 	nop 
      4c:	01 00 00 00 	nop 
      50:	a1 48 00 00 	rd  %psr, %l0
      54:	29 00 00 04 	sethi  %hi(0x1000), %l4
      58:	81 c5 20 68 	jmp  %l4 + 0x68	! 1068 <window_overflow_trap_handler>
      5c:	a7 58 00 00 	rd  %tbr, %l3
      60:	a1 48 00 00 	rd  %psr, %l0
      64:	29 00 00 04 	sethi  %hi(0x1000), %l4
      68:	81 c5 20 c0 	jmp  %l4 + 0xc0	! 10c0 <window_underflow_trap_handler>
      6c:	a7 58 00 00 	rd  %tbr, %l3
      70:	91 d0 20 00 	ta  0
      74:	01 00 00 00 	nop 
      78:	01 00 00 00 	nop 
      7c:	01 00 00 00 	nop 
      80:	91 d0 20 00 	ta  0
      84:	01 00 00 00 	nop 
      88:	01 00 00 00 	nop 
      8c:	01 00 00 00 	nop 
      90:	91 d0 20 00 	ta  0
      94:	01 00 00 00 	nop 
      98:	01 00 00 00 	nop 
      9c:	01 00 00 00 	nop 
      a0:	91 d0 20 00 	ta  0
      a4:	01 00 00 00 	nop 
      a8:	01 00 00 00 	nop 
      ac:	01 00 00 00 	nop 
      b0:	91 d0 20 00 	ta  0
      b4:	01 00 00 00 	nop 
      b8:	01 00 00 00 	nop 
      bc:	01 00 00 00 	nop 
      c0:	91 d0 20 00 	ta  0
      c4:	01 00 00 00 	nop 
      c8:	01 00 00 00 	nop 
      cc:	01 00 00 00 	nop 
      d0:	91 d0 20 00 	ta  0
      d4:	01 00 00 00 	nop 
      d8:	01 00 00 00 	nop 
      dc:	01 00 00 00 	nop 
      e0:	91 d0 20 00 	ta  0
      e4:	01 00 00 00 	nop 
      e8:	01 00 00 00 	nop 
      ec:	01 00 00 00 	nop 
      f0:	91 d0 20 00 	ta  0
      f4:	01 00 00 00 	nop 
      f8:	01 00 00 00 	nop 
      fc:	01 00 00 00 	nop 
     100:	91 d0 20 00 	ta  0
     104:	01 00 00 00 	nop 
     108:	01 00 00 00 	nop 
     10c:	01 00 00 00 	nop 
     110:	a1 48 00 00 	rd  %psr, %l0
     114:	29 00 00 04 	sethi  %hi(0x1000), %l4
     118:	81 c5 21 18 	jmp  %l4 + 0x118	! 1118 <user_handler>
     11c:	a7 58 00 00 	rd  %tbr, %l3
     120:	a1 48 00 00 	rd  %psr, %l0
     124:	29 00 00 04 	sethi  %hi(0x1000), %l4
     128:	81 c5 21 18 	jmp  %l4 + 0x118	! 1118 <user_handler>
     12c:	a7 58 00 00 	rd  %tbr, %l3
     130:	a1 48 00 00 	rd  %psr, %l0
     134:	29 00 00 04 	sethi  %hi(0x1000), %l4
     138:	81 c5 21 18 	jmp  %l4 + 0x118	! 1118 <user_handler>
     13c:	a7 58 00 00 	rd  %tbr, %l3
     140:	a1 48 00 00 	rd  %psr, %l0
     144:	29 00 00 04 	sethi  %hi(0x1000), %l4
     148:	81 c5 21 18 	jmp  %l4 + 0x118	! 1118 <user_handler>
     14c:	a7 58 00 00 	rd  %tbr, %l3
     150:	a1 48 00 00 	rd  %psr, %l0
     154:	29 00 00 04 	sethi  %hi(0x1000), %l4
     158:	81 c5 21 18 	jmp  %l4 + 0x118	! 1118 <user_handler>
     15c:	a7 58 00 00 	rd  %tbr, %l3
     160:	a1 48 00 00 	rd  %psr, %l0
     164:	29 00 00 04 	sethi  %hi(0x1000), %l4
     168:	81 c5 21 18 	jmp  %l4 + 0x118	! 1118 <user_handler>
     16c:	a7 58 00 00 	rd  %tbr, %l3
     170:	a1 48 00 00 	rd  %psr, %l0
     174:	29 00 00 04 	sethi  %hi(0x1000), %l4
     178:	81 c5 21 18 	jmp  %l4 + 0x118	! 1118 <user_handler>
     17c:	a7 58 00 00 	rd  %tbr, %l3
     180:	a1 48 00 00 	rd  %psr, %l0
     184:	29 00 00 04 	sethi  %hi(0x1000), %l4
     188:	81 c5 21 18 	jmp  %l4 + 0x118	! 1118 <user_handler>
     18c:	a7 58 00 00 	rd  %tbr, %l3
     190:	a1 48 00 00 	rd  %psr, %l0
     194:	29 00 00 04 	sethi  %hi(0x1000), %l4
     198:	81 c5 21 18 	jmp  %l4 + 0x118	! 1118 <user_handler>
     19c:	a7 58 00 00 	rd  %tbr, %l3
     1a0:	a1 48 00 00 	rd  %psr, %l0
     1a4:	29 00 00 04 	sethi  %hi(0x1000), %l4
     1a8:	81 c5 21 18 	jmp  %l4 + 0x118	! 1118 <user_handler>
     1ac:	a7 58 00 00 	rd  %tbr, %l3
     1b0:	a1 48 00 00 	rd  %psr, %l0
     1b4:	29 00 00 04 	sethi  %hi(0x1000), %l4
     1b8:	81 c5 21 18 	jmp  %l4 + 0x118	! 1118 <user_handler>
     1bc:	a7 58 00 00 	rd  %tbr, %l3
     1c0:	a1 48 00 00 	rd  %psr, %l0
     1c4:	29 00 00 04 	sethi  %hi(0x1000), %l4
     1c8:	81 c5 21 18 	jmp  %l4 + 0x118	! 1118 <user_handler>
     1cc:	a7 58 00 00 	rd  %tbr, %l3
     1d0:	a1 48 00 00 	rd  %psr, %l0
     1d4:	29 00 00 04 	sethi  %hi(0x1000), %l4
     1d8:	81 c5 21 18 	jmp  %l4 + 0x118	! 1118 <user_handler>
     1dc:	a7 58 00 00 	rd  %tbr, %l3
     1e0:	a1 48 00 00 	rd  %psr, %l0
     1e4:	29 00 00 04 	sethi  %hi(0x1000), %l4
     1e8:	81 c5 21 18 	jmp  %l4 + 0x118	! 1118 <user_handler>
     1ec:	a7 58 00 00 	rd  %tbr, %l3
     1f0:	a1 48 00 00 	rd  %psr, %l0
     1f4:	29 00 00 04 	sethi  %hi(0x1000), %l4
     1f8:	81 c5 21 18 	jmp  %l4 + 0x118	! 1118 <user_handler>
     1fc:	a7 58 00 00 	rd  %tbr, %l3
     200:	91 d0 20 00 	ta  0
     204:	01 00 00 00 	nop 
     208:	01 00 00 00 	nop 
     20c:	01 00 00 00 	nop 
     210:	91 d0 20 00 	ta  0
     214:	01 00 00 00 	nop 
     218:	01 00 00 00 	nop 
     21c:	01 00 00 00 	nop 
     220:	91 d0 20 00 	ta  0
     224:	01 00 00 00 	nop 
     228:	01 00 00 00 	nop 
     22c:	01 00 00 00 	nop 
     230:	91 d0 20 00 	ta  0
     234:	01 00 00 00 	nop 
     238:	01 00 00 00 	nop 
     23c:	01 00 00 00 	nop 
     240:	91 d0 20 00 	ta  0
     244:	01 00 00 00 	nop 
     248:	01 00 00 00 	nop 
     24c:	01 00 00 00 	nop 
     250:	91 d0 20 00 	ta  0
     254:	01 00 00 00 	nop 
     258:	01 00 00 00 	nop 
     25c:	01 00 00 00 	nop 
     260:	91 d0 20 00 	ta  0
     264:	01 00 00 00 	nop 
     268:	01 00 00 00 	nop 
     26c:	01 00 00 00 	nop 
     270:	91 d0 20 00 	ta  0
     274:	01 00 00 00 	nop 
     278:	01 00 00 00 	nop 
     27c:	01 00 00 00 	nop 
     280:	91 d0 20 00 	ta  0
     284:	01 00 00 00 	nop 
     288:	01 00 00 00 	nop 
     28c:	01 00 00 00 	nop 
     290:	91 d0 20 00 	ta  0
     294:	01 00 00 00 	nop 
     298:	01 00 00 00 	nop 
     29c:	01 00 00 00 	nop 
     2a0:	91 d0 20 00 	ta  0
     2a4:	01 00 00 00 	nop 
     2a8:	01 00 00 00 	nop 
     2ac:	01 00 00 00 	nop 
     2b0:	91 d0 20 00 	ta  0
     2b4:	01 00 00 00 	nop 
     2b8:	01 00 00 00 	nop 
     2bc:	01 00 00 00 	nop 
     2c0:	91 d0 20 00 	ta  0
     2c4:	01 00 00 00 	nop 
     2c8:	01 00 00 00 	nop 
     2cc:	01 00 00 00 	nop 
     2d0:	91 d0 20 00 	ta  0
     2d4:	01 00 00 00 	nop 
     2d8:	01 00 00 00 	nop 
     2dc:	01 00 00 00 	nop 
     2e0:	91 d0 20 00 	ta  0
     2e4:	01 00 00 00 	nop 
     2e8:	01 00 00 00 	nop 
     2ec:	01 00 00 00 	nop 
     2f0:	91 d0 20 00 	ta  0
     2f4:	01 00 00 00 	nop 
     2f8:	01 00 00 00 	nop 
     2fc:	01 00 00 00 	nop 
     300:	91 d0 20 00 	ta  0
     304:	01 00 00 00 	nop 
     308:	01 00 00 00 	nop 
     30c:	01 00 00 00 	nop 
     310:	91 d0 20 00 	ta  0
     314:	01 00 00 00 	nop 
     318:	01 00 00 00 	nop 
     31c:	01 00 00 00 	nop 
     320:	91 d0 20 00 	ta  0
     324:	01 00 00 00 	nop 
     328:	01 00 00 00 	nop 
     32c:	01 00 00 00 	nop 
     330:	91 d0 20 00 	ta  0
     334:	01 00 00 00 	nop 
     338:	01 00 00 00 	nop 
     33c:	01 00 00 00 	nop 
     340:	91 d0 20 00 	ta  0
     344:	01 00 00 00 	nop 
     348:	01 00 00 00 	nop 
     34c:	01 00 00 00 	nop 
     350:	91 d0 20 00 	ta  0
     354:	01 00 00 00 	nop 
     358:	01 00 00 00 	nop 
     35c:	01 00 00 00 	nop 
     360:	91 d0 20 00 	ta  0
     364:	01 00 00 00 	nop 
     368:	01 00 00 00 	nop 
     36c:	01 00 00 00 	nop 
     370:	91 d0 20 00 	ta  0
     374:	01 00 00 00 	nop 
     378:	01 00 00 00 	nop 
     37c:	01 00 00 00 	nop 
     380:	91 d0 20 00 	ta  0
     384:	01 00 00 00 	nop 
     388:	01 00 00 00 	nop 
     38c:	01 00 00 00 	nop 
     390:	91 d0 20 00 	ta  0
     394:	01 00 00 00 	nop 
     398:	01 00 00 00 	nop 
     39c:	01 00 00 00 	nop 
     3a0:	91 d0 20 00 	ta  0
     3a4:	01 00 00 00 	nop 
     3a8:	01 00 00 00 	nop 
     3ac:	01 00 00 00 	nop 
     3b0:	91 d0 20 00 	ta  0
     3b4:	01 00 00 00 	nop 
     3b8:	01 00 00 00 	nop 
     3bc:	01 00 00 00 	nop 
     3c0:	91 d0 20 00 	ta  0
     3c4:	01 00 00 00 	nop 
     3c8:	01 00 00 00 	nop 
     3cc:	01 00 00 00 	nop 
     3d0:	91 d0 20 00 	ta  0
     3d4:	01 00 00 00 	nop 
     3d8:	01 00 00 00 	nop 
     3dc:	01 00 00 00 	nop 
     3e0:	91 d0 20 00 	ta  0
     3e4:	01 00 00 00 	nop 
     3e8:	01 00 00 00 	nop 
     3ec:	01 00 00 00 	nop 
     3f0:	91 d0 20 00 	ta  0
     3f4:	01 00 00 00 	nop 
     3f8:	01 00 00 00 	nop 
     3fc:	01 00 00 00 	nop 
     400:	91 d0 20 00 	ta  0
     404:	01 00 00 00 	nop 
     408:	01 00 00 00 	nop 
     40c:	01 00 00 00 	nop 
     410:	91 d0 20 00 	ta  0
     414:	01 00 00 00 	nop 
     418:	01 00 00 00 	nop 
     41c:	01 00 00 00 	nop 
     420:	91 d0 20 00 	ta  0
     424:	01 00 00 00 	nop 
     428:	01 00 00 00 	nop 
     42c:	01 00 00 00 	nop 
     430:	91 d0 20 00 	ta  0
     434:	01 00 00 00 	nop 
     438:	01 00 00 00 	nop 
     43c:	01 00 00 00 	nop 
     440:	91 d0 20 00 	ta  0
     444:	01 00 00 00 	nop 
     448:	01 00 00 00 	nop 
     44c:	01 00 00 00 	nop 
     450:	91 d0 20 00 	ta  0
     454:	01 00 00 00 	nop 
     458:	01 00 00 00 	nop 
     45c:	01 00 00 00 	nop 
     460:	91 d0 20 00 	ta  0
     464:	01 00 00 00 	nop 
     468:	01 00 00 00 	nop 
     46c:	01 00 00 00 	nop 
     470:	91 d0 20 00 	ta  0
     474:	01 00 00 00 	nop 
     478:	01 00 00 00 	nop 
     47c:	01 00 00 00 	nop 
     480:	91 d0 20 00 	ta  0
     484:	01 00 00 00 	nop 
     488:	01 00 00 00 	nop 
     48c:	01 00 00 00 	nop 
     490:	91 d0 20 00 	ta  0
     494:	01 00 00 00 	nop 
     498:	01 00 00 00 	nop 
     49c:	01 00 00 00 	nop 
     4a0:	91 d0 20 00 	ta  0
     4a4:	01 00 00 00 	nop 
     4a8:	01 00 00 00 	nop 
     4ac:	01 00 00 00 	nop 
     4b0:	91 d0 20 00 	ta  0
     4b4:	01 00 00 00 	nop 
     4b8:	01 00 00 00 	nop 
     4bc:	01 00 00 00 	nop 
     4c0:	91 d0 20 00 	ta  0
     4c4:	01 00 00 00 	nop 
     4c8:	01 00 00 00 	nop 
     4cc:	01 00 00 00 	nop 
     4d0:	91 d0 20 00 	ta  0
     4d4:	01 00 00 00 	nop 
     4d8:	01 00 00 00 	nop 
     4dc:	01 00 00 00 	nop 
     4e0:	91 d0 20 00 	ta  0
     4e4:	01 00 00 00 	nop 
     4e8:	01 00 00 00 	nop 
     4ec:	01 00 00 00 	nop 
     4f0:	91 d0 20 00 	ta  0
     4f4:	01 00 00 00 	nop 
     4f8:	01 00 00 00 	nop 
     4fc:	01 00 00 00 	nop 
     500:	91 d0 20 00 	ta  0
     504:	01 00 00 00 	nop 
     508:	01 00 00 00 	nop 
     50c:	01 00 00 00 	nop 
     510:	91 d0 20 00 	ta  0
     514:	01 00 00 00 	nop 
     518:	01 00 00 00 	nop 
     51c:	01 00 00 00 	nop 
     520:	91 d0 20 00 	ta  0
     524:	01 00 00 00 	nop 
     528:	01 00 00 00 	nop 
     52c:	01 00 00 00 	nop 
     530:	91 d0 20 00 	ta  0
     534:	01 00 00 00 	nop 
     538:	01 00 00 00 	nop 
     53c:	01 00 00 00 	nop 
     540:	91 d0 20 00 	ta  0
     544:	01 00 00 00 	nop 
     548:	01 00 00 00 	nop 
     54c:	01 00 00 00 	nop 
     550:	91 d0 20 00 	ta  0
     554:	01 00 00 00 	nop 
     558:	01 00 00 00 	nop 
     55c:	01 00 00 00 	nop 
     560:	91 d0 20 00 	ta  0
     564:	01 00 00 00 	nop 
     568:	01 00 00 00 	nop 
     56c:	01 00 00 00 	nop 
     570:	91 d0 20 00 	ta  0
     574:	01 00 00 00 	nop 
     578:	01 00 00 00 	nop 
     57c:	01 00 00 00 	nop 
     580:	91 d0 20 00 	ta  0
     584:	01 00 00 00 	nop 
     588:	01 00 00 00 	nop 
     58c:	01 00 00 00 	nop 
     590:	91 d0 20 00 	ta  0
     594:	01 00 00 00 	nop 
     598:	01 00 00 00 	nop 
     59c:	01 00 00 00 	nop 
     5a0:	91 d0 20 00 	ta  0
     5a4:	01 00 00 00 	nop 
     5a8:	01 00 00 00 	nop 
     5ac:	01 00 00 00 	nop 
     5b0:	91 d0 20 00 	ta  0
     5b4:	01 00 00 00 	nop 
     5b8:	01 00 00 00 	nop 
     5bc:	01 00 00 00 	nop 
     5c0:	91 d0 20 00 	ta  0
     5c4:	01 00 00 00 	nop 
     5c8:	01 00 00 00 	nop 
     5cc:	01 00 00 00 	nop 
     5d0:	91 d0 20 00 	ta  0
     5d4:	01 00 00 00 	nop 
     5d8:	01 00 00 00 	nop 
     5dc:	01 00 00 00 	nop 
     5e0:	91 d0 20 00 	ta  0
     5e4:	01 00 00 00 	nop 
     5e8:	01 00 00 00 	nop 
     5ec:	01 00 00 00 	nop 
     5f0:	91 d0 20 00 	ta  0
     5f4:	01 00 00 00 	nop 
     5f8:	01 00 00 00 	nop 
     5fc:	01 00 00 00 	nop 
     600:	91 d0 20 00 	ta  0
     604:	01 00 00 00 	nop 
     608:	01 00 00 00 	nop 
     60c:	01 00 00 00 	nop 
     610:	91 d0 20 00 	ta  0
     614:	01 00 00 00 	nop 
     618:	01 00 00 00 	nop 
     61c:	01 00 00 00 	nop 
     620:	91 d0 20 00 	ta  0
     624:	01 00 00 00 	nop 
     628:	01 00 00 00 	nop 
     62c:	01 00 00 00 	nop 
     630:	91 d0 20 00 	ta  0
     634:	01 00 00 00 	nop 
     638:	01 00 00 00 	nop 
     63c:	01 00 00 00 	nop 
     640:	91 d0 20 00 	ta  0
     644:	01 00 00 00 	nop 
     648:	01 00 00 00 	nop 
     64c:	01 00 00 00 	nop 
     650:	91 d0 20 00 	ta  0
     654:	01 00 00 00 	nop 
     658:	01 00 00 00 	nop 
     65c:	01 00 00 00 	nop 
     660:	91 d0 20 00 	ta  0
     664:	01 00 00 00 	nop 
     668:	01 00 00 00 	nop 
     66c:	01 00 00 00 	nop 
     670:	91 d0 20 00 	ta  0
     674:	01 00 00 00 	nop 
     678:	01 00 00 00 	nop 
     67c:	01 00 00 00 	nop 
     680:	91 d0 20 00 	ta  0
     684:	01 00 00 00 	nop 
     688:	01 00 00 00 	nop 
     68c:	01 00 00 00 	nop 
     690:	91 d0 20 00 	ta  0
     694:	01 00 00 00 	nop 
     698:	01 00 00 00 	nop 
     69c:	01 00 00 00 	nop 
     6a0:	91 d0 20 00 	ta  0
     6a4:	01 00 00 00 	nop 
     6a8:	01 00 00 00 	nop 
     6ac:	01 00 00 00 	nop 
     6b0:	91 d0 20 00 	ta  0
     6b4:	01 00 00 00 	nop 
     6b8:	01 00 00 00 	nop 
     6bc:	01 00 00 00 	nop 
     6c0:	91 d0 20 00 	ta  0
     6c4:	01 00 00 00 	nop 
     6c8:	01 00 00 00 	nop 
     6cc:	01 00 00 00 	nop 
     6d0:	91 d0 20 00 	ta  0
     6d4:	01 00 00 00 	nop 
     6d8:	01 00 00 00 	nop 
     6dc:	01 00 00 00 	nop 
     6e0:	91 d0 20 00 	ta  0
     6e4:	01 00 00 00 	nop 
     6e8:	01 00 00 00 	nop 
     6ec:	01 00 00 00 	nop 
     6f0:	91 d0 20 00 	ta  0
     6f4:	01 00 00 00 	nop 
     6f8:	01 00 00 00 	nop 
     6fc:	01 00 00 00 	nop 
     700:	91 d0 20 00 	ta  0
     704:	01 00 00 00 	nop 
     708:	01 00 00 00 	nop 
     70c:	01 00 00 00 	nop 
     710:	91 d0 20 00 	ta  0
     714:	01 00 00 00 	nop 
     718:	01 00 00 00 	nop 
     71c:	01 00 00 00 	nop 
     720:	91 d0 20 00 	ta  0
     724:	01 00 00 00 	nop 
     728:	01 00 00 00 	nop 
     72c:	01 00 00 00 	nop 
     730:	91 d0 20 00 	ta  0
     734:	01 00 00 00 	nop 
     738:	01 00 00 00 	nop 
     73c:	01 00 00 00 	nop 
     740:	91 d0 20 00 	ta  0
     744:	01 00 00 00 	nop 
     748:	01 00 00 00 	nop 
     74c:	01 00 00 00 	nop 
     750:	91 d0 20 00 	ta  0
     754:	01 00 00 00 	nop 
     758:	01 00 00 00 	nop 
     75c:	01 00 00 00 	nop 
     760:	91 d0 20 00 	ta  0
     764:	01 00 00 00 	nop 
     768:	01 00 00 00 	nop 
     76c:	01 00 00 00 	nop 
     770:	91 d0 20 00 	ta  0
     774:	01 00 00 00 	nop 
     778:	01 00 00 00 	nop 
     77c:	01 00 00 00 	nop 
     780:	91 d0 20 00 	ta  0
     784:	01 00 00 00 	nop 
     788:	01 00 00 00 	nop 
     78c:	01 00 00 00 	nop 
     790:	91 d0 20 00 	ta  0
     794:	01 00 00 00 	nop 
     798:	01 00 00 00 	nop 
     79c:	01 00 00 00 	nop 
     7a0:	91 d0 20 00 	ta  0
     7a4:	01 00 00 00 	nop 
     7a8:	01 00 00 00 	nop 
     7ac:	01 00 00 00 	nop 
     7b0:	91 d0 20 00 	ta  0
     7b4:	01 00 00 00 	nop 
     7b8:	01 00 00 00 	nop 
     7bc:	01 00 00 00 	nop 
     7c0:	91 d0 20 00 	ta  0
     7c4:	01 00 00 00 	nop 
     7c8:	01 00 00 00 	nop 
     7cc:	01 00 00 00 	nop 
     7d0:	91 d0 20 00 	ta  0
     7d4:	01 00 00 00 	nop 
     7d8:	01 00 00 00 	nop 
     7dc:	01 00 00 00 	nop 
     7e0:	91 d0 20 00 	ta  0
     7e4:	01 00 00 00 	nop 
     7e8:	01 00 00 00 	nop 
     7ec:	01 00 00 00 	nop 
     7f0:	91 d0 20 00 	ta  0
     7f4:	01 00 00 00 	nop 
     7f8:	01 00 00 00 	nop 
     7fc:	01 00 00 00 	nop 
     800:	91 d0 20 00 	ta  0
     804:	01 00 00 00 	nop 
     808:	01 00 00 00 	nop 
     80c:	01 00 00 00 	nop 
     810:	91 d0 20 00 	ta  0
     814:	01 00 00 00 	nop 
     818:	01 00 00 00 	nop 
     81c:	01 00 00 00 	nop 
     820:	91 d0 20 00 	ta  0
     824:	01 00 00 00 	nop 
     828:	01 00 00 00 	nop 
     82c:	01 00 00 00 	nop 
     830:	91 d0 20 00 	ta  0
     834:	01 00 00 00 	nop 
     838:	01 00 00 00 	nop 
     83c:	01 00 00 00 	nop 
     840:	91 d0 20 00 	ta  0
     844:	01 00 00 00 	nop 
     848:	01 00 00 00 	nop 
     84c:	01 00 00 00 	nop 
     850:	91 d0 20 00 	ta  0
     854:	01 00 00 00 	nop 
     858:	01 00 00 00 	nop 
     85c:	01 00 00 00 	nop 
     860:	91 d0 20 00 	ta  0
     864:	01 00 00 00 	nop 
     868:	01 00 00 00 	nop 
     86c:	01 00 00 00 	nop 
     870:	91 d0 20 00 	ta  0
     874:	01 00 00 00 	nop 
     878:	01 00 00 00 	nop 
     87c:	01 00 00 00 	nop 
     880:	91 d0 20 00 	ta  0
     884:	01 00 00 00 	nop 
     888:	01 00 00 00 	nop 
     88c:	01 00 00 00 	nop 
     890:	91 d0 20 00 	ta  0
     894:	01 00 00 00 	nop 
     898:	01 00 00 00 	nop 
     89c:	01 00 00 00 	nop 
     8a0:	91 d0 20 00 	ta  0
     8a4:	01 00 00 00 	nop 
     8a8:	01 00 00 00 	nop 
     8ac:	01 00 00 00 	nop 
     8b0:	91 d0 20 00 	ta  0
     8b4:	01 00 00 00 	nop 
     8b8:	01 00 00 00 	nop 
     8bc:	01 00 00 00 	nop 
     8c0:	91 d0 20 00 	ta  0
     8c4:	01 00 00 00 	nop 
     8c8:	01 00 00 00 	nop 
     8cc:	01 00 00 00 	nop 
     8d0:	91 d0 20 00 	ta  0
     8d4:	01 00 00 00 	nop 
     8d8:	01 00 00 00 	nop 
     8dc:	01 00 00 00 	nop 
     8e0:	91 d0 20 00 	ta  0
     8e4:	01 00 00 00 	nop 
     8e8:	01 00 00 00 	nop 
     8ec:	01 00 00 00 	nop 
     8f0:	91 d0 20 00 	ta  0
     8f4:	01 00 00 00 	nop 
     8f8:	01 00 00 00 	nop 
     8fc:	01 00 00 00 	nop 
     900:	91 d0 20 00 	ta  0
     904:	01 00 00 00 	nop 
     908:	01 00 00 00 	nop 
     90c:	01 00 00 00 	nop 
     910:	91 d0 20 00 	ta  0
     914:	01 00 00 00 	nop 
     918:	01 00 00 00 	nop 
     91c:	01 00 00 00 	nop 
     920:	91 d0 20 00 	ta  0
     924:	01 00 00 00 	nop 
     928:	01 00 00 00 	nop 
     92c:	01 00 00 00 	nop 
     930:	91 d0 20 00 	ta  0
     934:	01 00 00 00 	nop 
     938:	01 00 00 00 	nop 
     93c:	01 00 00 00 	nop 
     940:	91 d0 20 00 	ta  0
     944:	01 00 00 00 	nop 
     948:	01 00 00 00 	nop 
     94c:	01 00 00 00 	nop 
     950:	91 d0 20 00 	ta  0
     954:	01 00 00 00 	nop 
     958:	01 00 00 00 	nop 
     95c:	01 00 00 00 	nop 
     960:	91 d0 20 00 	ta  0
     964:	01 00 00 00 	nop 
     968:	01 00 00 00 	nop 
     96c:	01 00 00 00 	nop 
     970:	91 d0 20 00 	ta  0
     974:	01 00 00 00 	nop 
     978:	01 00 00 00 	nop 
     97c:	01 00 00 00 	nop 
     980:	91 d0 20 00 	ta  0
     984:	01 00 00 00 	nop 
     988:	01 00 00 00 	nop 
     98c:	01 00 00 00 	nop 
     990:	91 d0 20 00 	ta  0
     994:	01 00 00 00 	nop 
     998:	01 00 00 00 	nop 
     99c:	01 00 00 00 	nop 
     9a0:	91 d0 20 00 	ta  0
     9a4:	01 00 00 00 	nop 
     9a8:	01 00 00 00 	nop 
     9ac:	01 00 00 00 	nop 
     9b0:	91 d0 20 00 	ta  0
     9b4:	01 00 00 00 	nop 
     9b8:	01 00 00 00 	nop 
     9bc:	01 00 00 00 	nop 
     9c0:	91 d0 20 00 	ta  0
     9c4:	01 00 00 00 	nop 
     9c8:	01 00 00 00 	nop 
     9cc:	01 00 00 00 	nop 
     9d0:	91 d0 20 00 	ta  0
     9d4:	01 00 00 00 	nop 
     9d8:	01 00 00 00 	nop 
     9dc:	01 00 00 00 	nop 
     9e0:	91 d0 20 00 	ta  0
     9e4:	01 00 00 00 	nop 
     9e8:	01 00 00 00 	nop 
     9ec:	01 00 00 00 	nop 
     9f0:	91 d0 20 00 	ta  0
     9f4:	01 00 00 00 	nop 
     9f8:	01 00 00 00 	nop 
     9fc:	01 00 00 00 	nop 
     a00:	91 d0 20 00 	ta  0
     a04:	01 00 00 00 	nop 
     a08:	01 00 00 00 	nop 
     a0c:	01 00 00 00 	nop 
     a10:	91 d0 20 00 	ta  0
     a14:	01 00 00 00 	nop 
     a18:	01 00 00 00 	nop 
     a1c:	01 00 00 00 	nop 
     a20:	91 d0 20 00 	ta  0
     a24:	01 00 00 00 	nop 
     a28:	01 00 00 00 	nop 
     a2c:	01 00 00 00 	nop 
     a30:	91 d0 20 00 	ta  0
     a34:	01 00 00 00 	nop 
     a38:	01 00 00 00 	nop 
     a3c:	01 00 00 00 	nop 
     a40:	91 d0 20 00 	ta  0
     a44:	01 00 00 00 	nop 
     a48:	01 00 00 00 	nop 
     a4c:	01 00 00 00 	nop 
     a50:	91 d0 20 00 	ta  0
     a54:	01 00 00 00 	nop 
     a58:	01 00 00 00 	nop 
     a5c:	01 00 00 00 	nop 
     a60:	91 d0 20 00 	ta  0
     a64:	01 00 00 00 	nop 
     a68:	01 00 00 00 	nop 
     a6c:	01 00 00 00 	nop 
     a70:	91 d0 20 00 	ta  0
     a74:	01 00 00 00 	nop 
     a78:	01 00 00 00 	nop 
     a7c:	01 00 00 00 	nop 
     a80:	91 d0 20 00 	ta  0
     a84:	01 00 00 00 	nop 
     a88:	01 00 00 00 	nop 
     a8c:	01 00 00 00 	nop 
     a90:	91 d0 20 00 	ta  0
     a94:	01 00 00 00 	nop 
     a98:	01 00 00 00 	nop 
     a9c:	01 00 00 00 	nop 
     aa0:	91 d0 20 00 	ta  0
     aa4:	01 00 00 00 	nop 
     aa8:	01 00 00 00 	nop 
     aac:	01 00 00 00 	nop 
     ab0:	91 d0 20 00 	ta  0
     ab4:	01 00 00 00 	nop 
     ab8:	01 00 00 00 	nop 
     abc:	01 00 00 00 	nop 
     ac0:	91 d0 20 00 	ta  0
     ac4:	01 00 00 00 	nop 
     ac8:	01 00 00 00 	nop 
     acc:	01 00 00 00 	nop 
     ad0:	91 d0 20 00 	ta  0
     ad4:	01 00 00 00 	nop 
     ad8:	01 00 00 00 	nop 
     adc:	01 00 00 00 	nop 
     ae0:	91 d0 20 00 	ta  0
     ae4:	01 00 00 00 	nop 
     ae8:	01 00 00 00 	nop 
     aec:	01 00 00 00 	nop 
     af0:	91 d0 20 00 	ta  0
     af4:	01 00 00 00 	nop 
     af8:	01 00 00 00 	nop 
     afc:	01 00 00 00 	nop 
     b00:	91 d0 20 00 	ta  0
     b04:	01 00 00 00 	nop 
     b08:	01 00 00 00 	nop 
     b0c:	01 00 00 00 	nop 
     b10:	91 d0 20 00 	ta  0
     b14:	01 00 00 00 	nop 
     b18:	01 00 00 00 	nop 
     b1c:	01 00 00 00 	nop 
     b20:	91 d0 20 00 	ta  0
     b24:	01 00 00 00 	nop 
     b28:	01 00 00 00 	nop 
     b2c:	01 00 00 00 	nop 
     b30:	91 d0 20 00 	ta  0
     b34:	01 00 00 00 	nop 
     b38:	01 00 00 00 	nop 
     b3c:	01 00 00 00 	nop 
     b40:	91 d0 20 00 	ta  0
     b44:	01 00 00 00 	nop 
     b48:	01 00 00 00 	nop 
     b4c:	01 00 00 00 	nop 
     b50:	91 d0 20 00 	ta  0
     b54:	01 00 00 00 	nop 
     b58:	01 00 00 00 	nop 
     b5c:	01 00 00 00 	nop 
     b60:	91 d0 20 00 	ta  0
     b64:	01 00 00 00 	nop 
     b68:	01 00 00 00 	nop 
     b6c:	01 00 00 00 	nop 
     b70:	91 d0 20 00 	ta  0
     b74:	01 00 00 00 	nop 
     b78:	01 00 00 00 	nop 
     b7c:	01 00 00 00 	nop 
     b80:	91 d0 20 00 	ta  0
     b84:	01 00 00 00 	nop 
     b88:	01 00 00 00 	nop 
     b8c:	01 00 00 00 	nop 
     b90:	91 d0 20 00 	ta  0
     b94:	01 00 00 00 	nop 
     b98:	01 00 00 00 	nop 
     b9c:	01 00 00 00 	nop 
     ba0:	91 d0 20 00 	ta  0
     ba4:	01 00 00 00 	nop 
     ba8:	01 00 00 00 	nop 
     bac:	01 00 00 00 	nop 
     bb0:	91 d0 20 00 	ta  0
     bb4:	01 00 00 00 	nop 
     bb8:	01 00 00 00 	nop 
     bbc:	01 00 00 00 	nop 
     bc0:	91 d0 20 00 	ta  0
     bc4:	01 00 00 00 	nop 
     bc8:	01 00 00 00 	nop 
     bcc:	01 00 00 00 	nop 
     bd0:	91 d0 20 00 	ta  0
     bd4:	01 00 00 00 	nop 
     bd8:	01 00 00 00 	nop 
     bdc:	01 00 00 00 	nop 
     be0:	91 d0 20 00 	ta  0
     be4:	01 00 00 00 	nop 
     be8:	01 00 00 00 	nop 
     bec:	01 00 00 00 	nop 
     bf0:	91 d0 20 00 	ta  0
     bf4:	01 00 00 00 	nop 
     bf8:	01 00 00 00 	nop 
     bfc:	01 00 00 00 	nop 
     c00:	91 d0 20 00 	ta  0
     c04:	01 00 00 00 	nop 
     c08:	01 00 00 00 	nop 
     c0c:	01 00 00 00 	nop 
     c10:	91 d0 20 00 	ta  0
     c14:	01 00 00 00 	nop 
     c18:	01 00 00 00 	nop 
     c1c:	01 00 00 00 	nop 
     c20:	91 d0 20 00 	ta  0
     c24:	01 00 00 00 	nop 
     c28:	01 00 00 00 	nop 
     c2c:	01 00 00 00 	nop 
     c30:	91 d0 20 00 	ta  0
     c34:	01 00 00 00 	nop 
     c38:	01 00 00 00 	nop 
     c3c:	01 00 00 00 	nop 
     c40:	91 d0 20 00 	ta  0
     c44:	01 00 00 00 	nop 
     c48:	01 00 00 00 	nop 
     c4c:	01 00 00 00 	nop 
     c50:	91 d0 20 00 	ta  0
     c54:	01 00 00 00 	nop 
     c58:	01 00 00 00 	nop 
     c5c:	01 00 00 00 	nop 
     c60:	91 d0 20 00 	ta  0
     c64:	01 00 00 00 	nop 
     c68:	01 00 00 00 	nop 
     c6c:	01 00 00 00 	nop 
     c70:	91 d0 20 00 	ta  0
     c74:	01 00 00 00 	nop 
     c78:	01 00 00 00 	nop 
     c7c:	01 00 00 00 	nop 
     c80:	91 d0 20 00 	ta  0
     c84:	01 00 00 00 	nop 
     c88:	01 00 00 00 	nop 
     c8c:	01 00 00 00 	nop 
     c90:	91 d0 20 00 	ta  0
     c94:	01 00 00 00 	nop 
     c98:	01 00 00 00 	nop 
     c9c:	01 00 00 00 	nop 
     ca0:	91 d0 20 00 	ta  0
     ca4:	01 00 00 00 	nop 
     ca8:	01 00 00 00 	nop 
     cac:	01 00 00 00 	nop 
     cb0:	91 d0 20 00 	ta  0
     cb4:	01 00 00 00 	nop 
     cb8:	01 00 00 00 	nop 
     cbc:	01 00 00 00 	nop 
     cc0:	91 d0 20 00 	ta  0
     cc4:	01 00 00 00 	nop 
     cc8:	01 00 00 00 	nop 
     ccc:	01 00 00 00 	nop 
     cd0:	91 d0 20 00 	ta  0
     cd4:	01 00 00 00 	nop 
     cd8:	01 00 00 00 	nop 
     cdc:	01 00 00 00 	nop 
     ce0:	91 d0 20 00 	ta  0
     ce4:	01 00 00 00 	nop 
     ce8:	01 00 00 00 	nop 
     cec:	01 00 00 00 	nop 
     cf0:	91 d0 20 00 	ta  0
     cf4:	01 00 00 00 	nop 
     cf8:	01 00 00 00 	nop 
     cfc:	01 00 00 00 	nop 
     d00:	91 d0 20 00 	ta  0
     d04:	01 00 00 00 	nop 
     d08:	01 00 00 00 	nop 
     d0c:	01 00 00 00 	nop 
     d10:	91 d0 20 00 	ta  0
     d14:	01 00 00 00 	nop 
     d18:	01 00 00 00 	nop 
     d1c:	01 00 00 00 	nop 
     d20:	91 d0 20 00 	ta  0
     d24:	01 00 00 00 	nop 
     d28:	01 00 00 00 	nop 
     d2c:	01 00 00 00 	nop 
     d30:	91 d0 20 00 	ta  0
     d34:	01 00 00 00 	nop 
     d38:	01 00 00 00 	nop 
     d3c:	01 00 00 00 	nop 
     d40:	91 d0 20 00 	ta  0
     d44:	01 00 00 00 	nop 
     d48:	01 00 00 00 	nop 
     d4c:	01 00 00 00 	nop 
     d50:	91 d0 20 00 	ta  0
     d54:	01 00 00 00 	nop 
     d58:	01 00 00 00 	nop 
     d5c:	01 00 00 00 	nop 
     d60:	91 d0 20 00 	ta  0
     d64:	01 00 00 00 	nop 
     d68:	01 00 00 00 	nop 
     d6c:	01 00 00 00 	nop 
     d70:	91 d0 20 00 	ta  0
     d74:	01 00 00 00 	nop 
     d78:	01 00 00 00 	nop 
     d7c:	01 00 00 00 	nop 
     d80:	91 d0 20 00 	ta  0
     d84:	01 00 00 00 	nop 
     d88:	01 00 00 00 	nop 
     d8c:	01 00 00 00 	nop 
     d90:	91 d0 20 00 	ta  0
     d94:	01 00 00 00 	nop 
     d98:	01 00 00 00 	nop 
     d9c:	01 00 00 00 	nop 
     da0:	91 d0 20 00 	ta  0
     da4:	01 00 00 00 	nop 
     da8:	01 00 00 00 	nop 
     dac:	01 00 00 00 	nop 
     db0:	91 d0 20 00 	ta  0
     db4:	01 00 00 00 	nop 
     db8:	01 00 00 00 	nop 
     dbc:	01 00 00 00 	nop 
     dc0:	91 d0 20 00 	ta  0
     dc4:	01 00 00 00 	nop 
     dc8:	01 00 00 00 	nop 
     dcc:	01 00 00 00 	nop 
     dd0:	91 d0 20 00 	ta  0
     dd4:	01 00 00 00 	nop 
     dd8:	01 00 00 00 	nop 
     ddc:	01 00 00 00 	nop 
     de0:	91 d0 20 00 	ta  0
     de4:	01 00 00 00 	nop 
     de8:	01 00 00 00 	nop 
     dec:	01 00 00 00 	nop 
     df0:	91 d0 20 00 	ta  0
     df4:	01 00 00 00 	nop 
     df8:	01 00 00 00 	nop 
     dfc:	01 00 00 00 	nop 
     e00:	91 d0 20 00 	ta  0
     e04:	01 00 00 00 	nop 
     e08:	01 00 00 00 	nop 
     e0c:	01 00 00 00 	nop 
     e10:	91 d0 20 00 	ta  0
     e14:	01 00 00 00 	nop 
     e18:	01 00 00 00 	nop 
     e1c:	01 00 00 00 	nop 
     e20:	91 d0 20 00 	ta  0
     e24:	01 00 00 00 	nop 
     e28:	01 00 00 00 	nop 
     e2c:	01 00 00 00 	nop 
     e30:	91 d0 20 00 	ta  0
     e34:	01 00 00 00 	nop 
     e38:	01 00 00 00 	nop 
     e3c:	01 00 00 00 	nop 
     e40:	91 d0 20 00 	ta  0
     e44:	01 00 00 00 	nop 
     e48:	01 00 00 00 	nop 
     e4c:	01 00 00 00 	nop 
     e50:	91 d0 20 00 	ta  0
     e54:	01 00 00 00 	nop 
     e58:	01 00 00 00 	nop 
     e5c:	01 00 00 00 	nop 
     e60:	91 d0 20 00 	ta  0
     e64:	01 00 00 00 	nop 
     e68:	01 00 00 00 	nop 
     e6c:	01 00 00 00 	nop 
     e70:	91 d0 20 00 	ta  0
     e74:	01 00 00 00 	nop 
     e78:	01 00 00 00 	nop 
     e7c:	01 00 00 00 	nop 
     e80:	91 d0 20 00 	ta  0
     e84:	01 00 00 00 	nop 
     e88:	01 00 00 00 	nop 
     e8c:	01 00 00 00 	nop 
     e90:	91 d0 20 00 	ta  0
     e94:	01 00 00 00 	nop 
     e98:	01 00 00 00 	nop 
     e9c:	01 00 00 00 	nop 
     ea0:	91 d0 20 00 	ta  0
     ea4:	01 00 00 00 	nop 
     ea8:	01 00 00 00 	nop 
     eac:	01 00 00 00 	nop 
     eb0:	91 d0 20 00 	ta  0
     eb4:	01 00 00 00 	nop 
     eb8:	01 00 00 00 	nop 
     ebc:	01 00 00 00 	nop 
     ec0:	91 d0 20 00 	ta  0
     ec4:	01 00 00 00 	nop 
     ec8:	01 00 00 00 	nop 
     ecc:	01 00 00 00 	nop 
     ed0:	91 d0 20 00 	ta  0
     ed4:	01 00 00 00 	nop 
     ed8:	01 00 00 00 	nop 
     edc:	01 00 00 00 	nop 
     ee0:	91 d0 20 00 	ta  0
     ee4:	01 00 00 00 	nop 
     ee8:	01 00 00 00 	nop 
     eec:	01 00 00 00 	nop 
     ef0:	91 d0 20 00 	ta  0
     ef4:	01 00 00 00 	nop 
     ef8:	01 00 00 00 	nop 
     efc:	01 00 00 00 	nop 
     f00:	91 d0 20 00 	ta  0
     f04:	01 00 00 00 	nop 
     f08:	01 00 00 00 	nop 
     f0c:	01 00 00 00 	nop 
     f10:	91 d0 20 00 	ta  0
     f14:	01 00 00 00 	nop 
     f18:	01 00 00 00 	nop 
     f1c:	01 00 00 00 	nop 
     f20:	91 d0 20 00 	ta  0
     f24:	01 00 00 00 	nop 
     f28:	01 00 00 00 	nop 
     f2c:	01 00 00 00 	nop 
     f30:	91 d0 20 00 	ta  0
     f34:	01 00 00 00 	nop 
     f38:	01 00 00 00 	nop 
     f3c:	01 00 00 00 	nop 
     f40:	91 d0 20 00 	ta  0
     f44:	01 00 00 00 	nop 
     f48:	01 00 00 00 	nop 
     f4c:	01 00 00 00 	nop 
     f50:	91 d0 20 00 	ta  0
     f54:	01 00 00 00 	nop 
     f58:	01 00 00 00 	nop 
     f5c:	01 00 00 00 	nop 
     f60:	91 d0 20 00 	ta  0
     f64:	01 00 00 00 	nop 
     f68:	01 00 00 00 	nop 
     f6c:	01 00 00 00 	nop 
     f70:	91 d0 20 00 	ta  0
     f74:	01 00 00 00 	nop 
     f78:	01 00 00 00 	nop 
     f7c:	01 00 00 00 	nop 
     f80:	91 d0 20 00 	ta  0
     f84:	01 00 00 00 	nop 
     f88:	01 00 00 00 	nop 
     f8c:	01 00 00 00 	nop 
     f90:	91 d0 20 00 	ta  0
     f94:	01 00 00 00 	nop 
     f98:	01 00 00 00 	nop 
     f9c:	01 00 00 00 	nop 
     fa0:	91 d0 20 00 	ta  0
     fa4:	01 00 00 00 	nop 
     fa8:	01 00 00 00 	nop 
     fac:	01 00 00 00 	nop 
     fb0:	91 d0 20 00 	ta  0
     fb4:	01 00 00 00 	nop 
     fb8:	01 00 00 00 	nop 
     fbc:	01 00 00 00 	nop 
     fc0:	91 d0 20 00 	ta  0
     fc4:	01 00 00 00 	nop 
     fc8:	01 00 00 00 	nop 
     fcc:	01 00 00 00 	nop 
     fd0:	91 d0 20 00 	ta  0
     fd4:	01 00 00 00 	nop 
     fd8:	01 00 00 00 	nop 
     fdc:	01 00 00 00 	nop 
     fe0:	91 d0 20 00 	ta  0
     fe4:	01 00 00 00 	nop 
     fe8:	01 00 00 00 	nop 
     fec:	01 00 00 00 	nop 
     ff0:	91 d0 20 00 	ta  0
     ff4:	01 00 00 00 	nop 
     ff8:	01 00 00 00 	nop 
     ffc:	01 00 00 00 	nop 

00001000 <hard_reset>:
    1000:	03 00 00 00 	sethi  %hi(0), %g1
    1004:	82 10 60 00 	mov  %g1, %g1	! 0 <_stext>
    1008:	81 98 40 00 	mov  %g1, %tbr
    100c:	83 48 00 00 	rd  %psr, %g1
    1010:	84 00 60 01 	add  %g1, 1, %g2
    1014:	84 08 a0 07 	and  %g2, 7, %g2
    1018:	86 10 20 01 	mov  1, %g3
    101c:	87 28 c0 02 	sll  %g3, %g2, %g3
    1020:	81 90 c0 00 	mov  %g3, %wim
    1024:	01 00 00 00 	nop 
    1028:	01 00 00 00 	nop 
    102c:	01 00 00 00 	nop 
    1030:	82 10 6f 20 	or  %g1, 0xf20, %g1
    1034:	81 88 40 00 	mov  %g1, %psr
    1038:	01 00 00 00 	nop 
    103c:	01 00 00 00 	nop 
    1040:	01 00 00 00 	nop 
    1044:	23 00 03 ef 	sethi  %hi(0xfbc00), %l1
    1048:	a2 14 63 c0 	or  %l1, 0x3c0, %l1	! fbfc0 <__stack>
    104c:	9c 04 40 00 	add  %l1, %g0, %sp
    1050:	9c 23 a0 10 	sub  %sp, 0x10, %sp
    1054:	9c 2b a0 0f 	andn  %sp, 0xf, %sp
    1058:	bc 10 00 0e 	mov  %sp, %fp
    105c:	01 00 00 00 	nop 
    1060:	40 00 00 7a 	call  1248 <_start>
    1064:	01 00 00 00 	nop 

00001068 <window_overflow_trap_handler>:
    1068:	a7 50 00 00 	rd  %wim, %l3
    106c:	ae 10 00 01 	mov  %g1, %l7
    1070:	83 34 e0 01 	srl  %l3, 1, %g1
    1074:	a9 2c e0 07 	sll  %l3, 7, %l4
    1078:	82 15 00 01 	or  %l4, %g1, %g1
    107c:	81 e0 00 00 	save 
    1080:	81 90 40 00 	mov  %g1, %wim
    1084:	01 00 00 00 	nop 
    1088:	01 00 00 00 	nop 
    108c:	01 00 00 00 	nop 
    1090:	e0 3b a0 00 	std  %l0, [ %sp ]
    1094:	e4 3b a0 08 	std  %l2, [ %sp + 8 ]
    1098:	e8 3b a0 10 	std  %l4, [ %sp + 0x10 ]
    109c:	ec 3b a0 18 	std  %l6, [ %sp + 0x18 ]
    10a0:	f0 3b a0 20 	std  %i0, [ %sp + 0x20 ]
    10a4:	f4 3b a0 28 	std  %i2, [ %sp + 0x28 ]
    10a8:	f8 3b a0 30 	std  %i4, [ %sp + 0x30 ]
    10ac:	fc 3b a0 38 	std  %fp, [ %sp + 0x38 ]
    10b0:	81 e8 00 00 	restore 
    10b4:	82 10 00 17 	mov  %l7, %g1
    10b8:	81 c4 40 00 	jmp  %l1
    10bc:	81 cc 80 00 	rett  %l2

000010c0 <window_underflow_trap_handler>:
    10c0:	a7 50 00 00 	rd  %wim, %l3
    10c4:	a9 2c e0 01 	sll  %l3, 1, %l4
    10c8:	ab 34 e0 07 	srl  %l3, 7, %l5
    10cc:	aa 15 40 14 	or  %l5, %l4, %l5
    10d0:	81 95 40 00 	mov  %l5, %wim
    10d4:	01 00 00 00 	nop 
    10d8:	01 00 00 00 	nop 
    10dc:	01 00 00 00 	nop 
    10e0:	81 e8 00 00 	restore 
    10e4:	81 e8 00 00 	restore 
    10e8:	e0 1b a0 00 	ldd  [ %sp ], %l0
    10ec:	e4 1b a0 08 	ldd  [ %sp + 8 ], %l2
    10f0:	e8 1b a0 10 	ldd  [ %sp + 0x10 ], %l4
    10f4:	ec 1b a0 18 	ldd  [ %sp + 0x18 ], %l6
    10f8:	f0 1b a0 20 	ldd  [ %sp + 0x20 ], %i0
    10fc:	f4 1b a0 28 	ldd  [ %sp + 0x28 ], %i2
    1100:	f8 1b a0 30 	ldd  [ %sp + 0x30 ], %i4
    1104:	fc 1b a0 38 	ldd  [ %sp + 0x38 ], %fp
    1108:	81 e0 00 00 	save 
    110c:	81 e0 00 00 	save 
    1110:	81 c4 40 00 	jmp  %l1
    1114:	81 cc 80 00 	rett  %l2

00001118 <user_handler>:
    1118:	a1 48 00 00 	rd  %psr, %l0
    111c:	a7 50 00 00 	rd  %wim, %l3
    1120:	a9 34 c0 10 	srl  %l3, %l0, %l4
    1124:	80 a5 20 01 	cmp  %l4, 1
    1128:	12 80 00 12 	bne  1170 <window_fine>
    112c:	01 00 00 00 	nop 
    1130:	a8 10 00 01 	mov  %g1, %l4
    1134:	83 34 e0 01 	srl  %l3, 1, %g1
    1138:	ab 2c e0 07 	sll  %l3, 7, %l5
    113c:	82 15 40 01 	or  %l5, %g1, %g1
    1140:	81 e0 00 00 	save 
    1144:	81 90 40 00 	mov  %g1, %wim
    1148:	e0 3b a0 00 	std  %l0, [ %sp ]
    114c:	e4 3b a0 08 	std  %l2, [ %sp + 8 ]
    1150:	e8 3b a0 10 	std  %l4, [ %sp + 0x10 ]
    1154:	ec 3b a0 18 	std  %l6, [ %sp + 0x18 ]
    1158:	f0 3b a0 20 	std  %i0, [ %sp + 0x20 ]
    115c:	f4 3b a0 28 	std  %i2, [ %sp + 0x28 ]
    1160:	f8 3b a0 30 	std  %i4, [ %sp + 0x30 ]
    1164:	fc 3b a0 38 	std  %fp, [ %sp + 0x38 ]
    1168:	81 e8 00 00 	restore 
    116c:	82 10 00 14 	mov  %l4, %g1

00001170 <window_fine>:
    1170:	29 00 00 07 	sethi  %hi(0x1c00), %l4
    1174:	ea 05 21 7c 	ld  [ %l4 + 0x17c ], %l5	! 1d7c <in_trap_handler>
    1178:	80 95 40 00 	tst  %l5
    117c:	14 80 00 05 	bg  1190 <recursive_trap>
    1180:	aa 05 60 01 	inc  %l5
    1184:	2d 00 03 ff 	sethi  %hi(0xffc00), %l6
    1188:	ac 15 a3 c0 	or  %l6, 0x3c0, %l6	! fffc0 <__trap_stack>
    118c:	9c 10 00 16 	mov  %l6, %sp

00001190 <recursive_trap>:
    1190:	ea 25 21 7c 	st  %l5, [ %l4 + 0x17c ]
    1194:	9c 23 a1 80 	sub  %sp, 0x180, %sp
    1198:	c0 3b a0 60 	std  %g0, [ %sp + 0x60 ]
    119c:	c4 3b a0 68 	std  %g2, [ %sp + 0x68 ]
    11a0:	c8 3b a0 70 	std  %g4, [ %sp + 0x70 ]
    11a4:	cc 3b a0 78 	std  %g6, [ %sp + 0x78 ]
    11a8:	f0 3b a0 80 	std  %i0, [ %sp + 0x80 ]
    11ac:	f4 3b a0 88 	std  %i2, [ %sp + 0x88 ]
    11b0:	f8 3b a0 90 	std  %i4, [ %sp + 0x90 ]
    11b4:	fc 3b a0 98 	std  %fp, [ %sp + 0x98 ]
    11b8:	a9 40 00 00 	rd  %y, %l4
    11bc:	ab 58 00 00 	rd  %tbr, %l5
    11c0:	e8 23 a1 60 	st  %l4, [ %sp + 0x160 ]
    11c4:	e0 23 a1 64 	st  %l0, [ %sp + 0x164 ]
    11c8:	e6 23 a1 68 	st  %l3, [ %sp + 0x168 ]
    11cc:	ea 23 a1 6c 	st  %l5, [ %sp + 0x16c ]
    11d0:	e2 23 a1 70 	st  %l1, [ %sp + 0x170 ]
    11d4:	e4 23 a1 74 	st  %l2, [ %sp + 0x174 ]
    11d8:	91 58 00 00 	rd  %tbr, %o0
    11dc:	91 32 20 04 	srl  %o0, 4, %o0
    11e0:	90 0a 20 ff 	and  %o0, 0xff, %o0
    11e4:	90 02 3f f8 	add  %o0, -8, %o0
    11e8:	a8 14 2f 20 	or  %l0, 0xf20, %l4
    11ec:	81 8d 00 00 	mov  %l4, %psr
    11f0:	40 00 01 02 	call  15f8 <interrupt_hw_handler>
    11f4:	01 00 00 00 	nop 
    11f8:	c2 03 a0 64 	ld  [ %sp + 0x64 ], %g1
    11fc:	c4 1b a0 68 	ldd  [ %sp + 0x68 ], %g2
    1200:	c8 1b a0 70 	ldd  [ %sp + 0x70 ], %g4
    1204:	cc 1b a0 78 	ldd  [ %sp + 0x78 ], %g6
    1208:	f0 1b a0 80 	ldd  [ %sp + 0x80 ], %i0
    120c:	f4 1b a0 88 	ldd  [ %sp + 0x88 ], %i2
    1210:	f8 1b a0 90 	ldd  [ %sp + 0x90 ], %i4
    1214:	fc 1b a0 98 	ldd  [ %sp + 0x98 ], %fp
    1218:	e0 1b a1 60 	ldd  [ %sp + 0x160 ], %l0
    121c:	e4 1b a1 70 	ldd  [ %sp + 0x170 ], %l2
    1220:	81 e8 00 00 	restore 
    1224:	81 e0 00 00 	save 
    1228:	81 84 00 00 	mov  %l0, %y
    122c:	81 8c 40 00 	mov  %l1, %psr
    1230:	29 00 00 07 	sethi  %hi(0x1c00), %l4
    1234:	ea 05 21 7c 	ld  [ %l4 + 0x17c ], %l5	! 1d7c <in_trap_handler>
    1238:	aa 25 60 01 	dec  %l5
    123c:	ea 25 21 7c 	st  %l5, [ %l4 + 0x17c ]
    1240:	81 c4 80 00 	jmp  %l2
    1244:	81 cc c0 00 	rett  %l3

00001248 <_start>:
    1248:	05 00 00 07 	sethi  %hi(0x1c00), %g2
    124c:	84 10 a2 a8 	or  %g2, 0x2a8, %g2	! 1ea8 <_edata>
    1250:	07 00 00 07 	sethi  %hi(0x1c00), %g3
    1254:	86 10 e2 c0 	or  %g3, 0x2c0, %g3	! 1ec0 <_end>
    1258:	82 10 00 00 	mov  %g0, %g1

0000125c <zerobss>:
    125c:	c0 38 80 00 	std  %g0, [ %g2 ]
    1260:	84 00 a0 08 	add  %g2, 8, %g2
    1264:	80 a0 80 03 	cmp  %g2, %g3
    1268:	28 bf ff fd 	bleu,a   125c <zerobss>
    126c:	01 00 00 00 	nop 
    1270:	94 10 00 00 	mov  %g0, %o2
    1274:	92 10 00 00 	mov  %g0, %o1
    1278:	90 10 00 00 	mov  %g0, %o0
    127c:	9c 23 a0 60 	sub  %sp, 0x60, %sp
    1280:	40 00 00 1e 	call  12f8 <main>
    1284:	01 00 00 00 	nop 
    1288:	40 00 02 90 	call  1cc8 <exit>
    128c:	01 00 00 00 	nop 

00001290 <_exit>:
    1290:	91 d0 20 00 	ta  0
    1294:	01 00 00 00 	nop 

00001298 <irq_handler>:
    1298:	9d e3 bf a0 	save  %sp, -96, %sp
    129c:	11 00 00 07 	sethi  %hi(0x1c00), %o0
    12a0:	40 00 00 58 	call  1400 <puts>
    12a4:	90 12 21 98 	or  %o0, 0x198, %o0	! 1d98 <__FUNCTION__.1401+0x18>
    12a8:	92 10 20 01 	mov  1, %o1
    12ac:	11 00 00 07 	sethi  %hi(0x1c00), %o0
    12b0:	40 00 00 e2 	call  1638 <atomic_add>
    12b4:	90 12 22 a8 	or  %o0, 0x2a8, %o0	! 1ea8 <_edata>
    12b8:	98 10 00 08 	mov  %o0, %o4
    12bc:	83 44 00 00 	rd  %asr16, %g1
    12c0:	21 2c 00 00 	sethi  %hi(0xb0000000), %l0
    12c4:	83 28 60 04 	sll  %g1, 4, %g1
    12c8:	d4 00 40 10 	ld  [ %g1 + %l0 ], %o2
    12cc:	97 44 00 00 	rd  %asr16, %o3
    12d0:	11 00 00 07 	sethi  %hi(0x1c00), %o0
    12d4:	92 10 00 18 	mov  %i0, %o1
    12d8:	40 00 01 53 	call  1824 <printf>
    12dc:	90 12 21 a8 	or  %o0, 0x1a8, %o0
    12e0:	83 44 00 00 	rd  %asr16, %g1
    12e4:	83 28 60 04 	sll  %g1, 4, %g1
    12e8:	82 00 60 0c 	add  %g1, 0xc, %g1
    12ec:	c0 20 40 10 	clr  [ %g1 + %l0 ]
    12f0:	81 c7 e0 08 	ret 
    12f4:	81 e8 00 00 	restore 

000012f8 <main>:
    12f8:	9d e3 bf a0 	save  %sp, -96, %sp
    12fc:	83 44 00 00 	rd  %asr16, %g1
    1300:	93 44 00 00 	rd  %asr16, %o1
    1304:	11 00 00 07 	sethi  %hi(0x1c00), %o0
    1308:	40 00 01 47 	call  1824 <printf>
    130c:	90 12 21 e8 	or  %o0, 0x1e8, %o0	! 1de8 <__FUNCTION__.1401+0x68>
    1310:	11 00 00 04 	sethi  %hi(0x1000), %o0
    1314:	40 00 00 aa 	call  15bc <set_irq_handler>
    1318:	90 12 22 98 	or  %o0, 0x298, %o0	! 1298 <irq_handler>
    131c:	84 10 30 ff 	mov  -3841, %g2
    1320:	82 10 20 00 	clr  %g1
    1324:	87 48 00 00 	rd  %psr, %g3
    1328:	86 08 c0 02 	and  %g3, %g2, %g3
    132c:	83 28 60 08 	sll  %g1, 8, %g1
    1330:	86 10 c0 01 	or  %g3, %g1, %g3
    1334:	81 88 e0 00 	mov  %g3, %psr
    1338:	40 00 00 a4 	call  15c8 <enable_hw_irq>
    133c:	90 10 20 00 	clr  %o0
    1340:	13 2c 00 00 	sethi  %hi(0xb0000000), %o1
    1344:	11 00 00 07 	sethi  %hi(0x1c00), %o0
    1348:	40 00 01 37 	call  1824 <printf>
    134c:	90 12 22 08 	or  %o0, 0x208, %o0	! 1e08 <__FUNCTION__.1401+0x88>
    1350:	92 10 20 04 	mov  4, %o1
    1354:	11 00 00 07 	sethi  %hi(0x1c00), %o0
    1358:	40 00 01 33 	call  1824 <printf>
    135c:	90 12 22 18 	or  %o0, 0x218, %o0	! 1e18 <__FUNCTION__.1401+0x98>
    1360:	92 10 20 02 	mov  2, %o1
    1364:	11 00 00 07 	sethi  %hi(0x1c00), %o0
    1368:	40 00 01 2f 	call  1824 <printf>
    136c:	90 12 22 28 	or  %o0, 0x228, %o0	! 1e28 <__FUNCTION__.1401+0xa8>
    1370:	83 44 00 00 	rd  %asr16, %g1
    1374:	21 2c 00 00 	sethi  %hi(0xb0000000), %l0
    1378:	83 28 60 04 	sll  %g1, 4, %g1
    137c:	d2 00 40 10 	ld  [ %g1 + %l0 ], %o1
    1380:	23 00 00 07 	sethi  %hi(0x1c00), %l1
    1384:	40 00 01 28 	call  1824 <printf>
    1388:	90 14 62 40 	or  %l1, 0x240, %o0	! 1e40 <__FUNCTION__.1401+0xc0>
    138c:	83 44 00 00 	rd  %asr16, %g1
    1390:	05 00 00 09 	sethi  %hi(0x2400), %g2
    1394:	83 28 60 04 	sll  %g1, 4, %g1
    1398:	84 10 a3 10 	or  %g2, 0x310, %g2
    139c:	82 00 60 08 	add  %g1, 8, %g1
    13a0:	c4 20 40 10 	st  %g2, [ %g1 + %l0 ]
    13a4:	83 44 00 00 	rd  %asr16, %g1
    13a8:	84 10 20 03 	mov  3, %g2
    13ac:	83 28 60 04 	sll  %g1, 4, %g1
    13b0:	82 00 60 04 	add  %g1, 4, %g1
    13b4:	c4 20 40 10 	st  %g2, [ %g1 + %l0 ]
    13b8:	83 44 00 00 	rd  %asr16, %g1
    13bc:	83 28 60 04 	sll  %g1, 4, %g1
    13c0:	d2 00 40 10 	ld  [ %g1 + %l0 ], %o1
    13c4:	40 00 01 18 	call  1824 <printf>
    13c8:	90 14 62 40 	or  %l1, 0x240, %o0
    13cc:	30 80 00 00 	b,a   13cc <main+0xd4>

000013d0 <putchar>:
    13d0:	85 44 00 00 	rd  %asr16, %g2
    13d4:	03 28 00 00 	sethi  %hi(0xa0000000), %g1
    13d8:	85 28 a0 04 	sll  %g2, 4, %g2
    13dc:	d0 28 80 01 	stb  %o0, [ %g2 + %g1 ]
    13e0:	81 c3 e0 08 	retl 
    13e4:	01 00 00 00 	nop 

000013e8 <getchar>:
    13e8:	85 44 00 00 	rd  %asr16, %g2
    13ec:	03 28 00 00 	sethi  %hi(0xa0000000), %g1
    13f0:	85 28 a0 04 	sll  %g2, 4, %g2
    13f4:	84 00 a0 08 	add  %g2, 8, %g2
    13f8:	81 c3 e0 08 	retl 
    13fc:	d0 08 80 01 	ldub  [ %g2 + %g1 ], %o0

00001400 <puts>:
    1400:	c2 0a 00 00 	ldub  [ %o0 ], %g1
    1404:	83 28 60 18 	sll  %g1, 0x18, %g1
    1408:	80 a0 60 00 	cmp  %g1, 0
    140c:	02 80 00 0c 	be  143c <puts+0x3c>
    1410:	07 28 00 00 	sethi  %hi(0xa0000000), %g3
    1414:	90 02 20 01 	inc  %o0
    1418:	85 44 00 00 	rd  %asr16, %g2
    141c:	85 28 a0 04 	sll  %g2, 4, %g2
    1420:	83 38 60 18 	sra  %g1, 0x18, %g1
    1424:	c2 28 80 03 	stb  %g1, [ %g2 + %g3 ]
    1428:	c2 0a 00 00 	ldub  [ %o0 ], %g1
    142c:	83 28 60 18 	sll  %g1, 0x18, %g1
    1430:	80 a0 60 00 	cmp  %g1, 0
    1434:	32 bf ff f9 	bne,a   1418 <puts+0x18>
    1438:	90 02 20 01 	inc  %o0
    143c:	85 44 00 00 	rd  %asr16, %g2
    1440:	86 10 20 0a 	mov  0xa, %g3
    1444:	85 28 a0 04 	sll  %g2, 4, %g2
    1448:	03 28 00 00 	sethi  %hi(0xa0000000), %g1
    144c:	c6 28 80 01 	stb  %g3, [ %g2 + %g1 ]
    1450:	81 c3 e0 08 	retl 
    1454:	90 10 20 00 	clr  %o0

00001458 <puti>:
    1458:	9d e3 bf a0 	save  %sp, -96, %sp
    145c:	80 a6 20 09 	cmp  %i0, 9
    1460:	14 80 00 13 	bg  14ac <puti+0x54>
    1464:	01 00 00 00 	nop 
    1468:	83 3e 20 1f 	sra  %i0, 0x1f, %g1
    146c:	81 80 60 00 	mov  %g1, %y
    1470:	01 00 00 00 	nop 
    1474:	01 00 00 00 	nop 
    1478:	01 00 00 00 	nop 
    147c:	a0 7e 20 0a 	sdiv  %i0, 0xa, %l0
    1480:	85 44 00 00 	rd  %asr16, %g2
    1484:	82 04 00 10 	add  %l0, %l0, %g1
    1488:	85 28 a0 04 	sll  %g2, 4, %g2
    148c:	a1 2c 20 03 	sll  %l0, 3, %l0
    1490:	a0 00 40 10 	add  %g1, %l0, %l0
    1494:	03 28 00 00 	sethi  %hi(0xa0000000), %g1
    1498:	b0 26 00 10 	sub  %i0, %l0, %i0
    149c:	b0 06 20 30 	add  %i0, 0x30, %i0
    14a0:	f0 28 80 01 	stb  %i0, [ %g2 + %g1 ]
    14a4:	81 c7 e0 08 	ret 
    14a8:	81 e8 00 00 	restore 
    14ac:	83 3e 20 1f 	sra  %i0, 0x1f, %g1
    14b0:	81 80 60 00 	mov  %g1, %y
    14b4:	01 00 00 00 	nop 
    14b8:	01 00 00 00 	nop 
    14bc:	01 00 00 00 	nop 
    14c0:	a0 7e 20 0a 	sdiv  %i0, 0xa, %l0
    14c4:	7f ff ff e5 	call  1458 <puti>
    14c8:	90 10 00 10 	mov  %l0, %o0
    14cc:	85 44 00 00 	rd  %asr16, %g2
    14d0:	82 04 00 10 	add  %l0, %l0, %g1
    14d4:	85 28 a0 04 	sll  %g2, 4, %g2
    14d8:	a1 2c 20 03 	sll  %l0, 3, %l0
    14dc:	a0 00 40 10 	add  %g1, %l0, %l0
    14e0:	03 28 00 00 	sethi  %hi(0xa0000000), %g1
    14e4:	b0 26 00 10 	sub  %i0, %l0, %i0
    14e8:	b0 06 20 30 	add  %i0, 0x30, %i0
    14ec:	f0 28 80 01 	stb  %i0, [ %g2 + %g1 ]
    14f0:	81 c7 e0 08 	ret 
    14f4:	81 e8 00 00 	restore 

000014f8 <run_cycles>:
    14f8:	81 c3 e0 08 	retl 
    14fc:	90 10 20 00 	clr  %o0

00001500 <cpu_cycles>:
    1500:	81 c3 e0 08 	retl 
    1504:	90 10 20 00 	clr  %o0

00001508 <set_ex_handler>:
    1508:	03 00 00 07 	sethi  %hi(0x1c00), %g1
    150c:	81 c3 e0 08 	retl 
    1510:	d0 20 62 ac 	st  %o0, [ %g1 + 0x2ac ]	! 1eac <user_ex_handler>

00001514 <interrupt_ex_handler>:
    1514:	9d e3 bf a0 	save  %sp, -96, %sp
    1518:	03 00 00 07 	sethi  %hi(0x1c00), %g1
    151c:	92 10 00 19 	mov  %i1, %o1
    1520:	c2 00 62 ac 	ld  [ %g1 + 0x2ac ], %g1
    1524:	94 10 00 1a 	mov  %i2, %o2
    1528:	96 10 00 1b 	mov  %i3, %o3
    152c:	80 a0 60 00 	cmp  %g1, 0
    1530:	02 80 00 06 	be  1548 <interrupt_ex_handler+0x34>
    1534:	98 10 00 1c 	mov  %i4, %o4
    1538:	9f c0 40 00 	call  %g1
    153c:	90 10 00 18 	mov  %i0, %o0
    1540:	81 c7 e0 08 	ret 
    1544:	81 e8 00 00 	restore 
    1548:	11 00 00 07 	sethi  %hi(0x1c00), %o0
    154c:	94 10 00 18 	mov  %i0, %o2
    1550:	40 00 00 b5 	call  1824 <printf>
    1554:	90 12 22 50 	or  %o0, 0x250, %o0
    1558:	40 00 01 dc 	call  1cc8 <exit>
    155c:	90 10 20 01 	mov  1, %o0
    1560:	01 00 00 00 	nop 

00001564 <set_sys_handler>:
    1564:	03 00 00 07 	sethi  %hi(0x1c00), %g1
    1568:	81 c3 e0 08 	retl 
    156c:	d0 20 62 b0 	st  %o0, [ %g1 + 0x2b0 ]	! 1eb0 <user_sys_handler>

00001570 <interrupt_sys_handler>:
    1570:	9d e3 bf a0 	save  %sp, -96, %sp
    1574:	03 00 00 07 	sethi  %hi(0x1c00), %g1
    1578:	92 10 00 19 	mov  %i1, %o1
    157c:	c2 00 62 b0 	ld  [ %g1 + 0x2b0 ], %g1
    1580:	94 10 00 1a 	mov  %i2, %o2
    1584:	80 a0 60 00 	cmp  %g1, 0
    1588:	02 80 00 06 	be  15a0 <interrupt_sys_handler+0x30>
    158c:	96 10 00 1b 	mov  %i3, %o3
    1590:	9f c0 40 00 	call  %g1
    1594:	90 10 00 18 	mov  %i0, %o0
    1598:	81 c7 e0 08 	ret 
    159c:	81 e8 00 00 	restore 
    15a0:	11 00 00 07 	sethi  %hi(0x1c00), %o0
    15a4:	94 10 00 18 	mov  %i0, %o2
    15a8:	40 00 00 9f 	call  1824 <printf>
    15ac:	90 12 22 70 	or  %o0, 0x270, %o0
    15b0:	40 00 01 c6 	call  1cc8 <exit>
    15b4:	90 10 20 01 	mov  1, %o0
    15b8:	01 00 00 00 	nop 

000015bc <set_irq_handler>:
    15bc:	03 00 00 07 	sethi  %hi(0x1c00), %g1
    15c0:	81 c3 e0 08 	retl 
    15c4:	d0 20 62 b4 	st  %o0, [ %g1 + 0x2b4 ]	! 1eb4 <user_irq_handler>

000015c8 <enable_hw_irq>:
    15c8:	82 10 2f 00 	mov  0xf00, %g1
    15cc:	83 48 00 00 	rd  %psr, %g1
    15d0:	82 10 40 01 	or  %g1, %g1, %g1
    15d4:	81 88 60 00 	mov  %g1, %psr
    15d8:	81 c3 e0 08 	retl 
    15dc:	01 00 00 00 	nop 

000015e0 <disable_hw_irq>:
    15e0:	82 10 30 ff 	mov  -3841, %g1	! fffff0ff <RAM_END+0xffeff0ff>
    15e4:	83 48 00 00 	rd  %psr, %g1
    15e8:	82 08 40 01 	and  %g1, %g1, %g1
    15ec:	81 88 60 00 	mov  %g1, %psr
    15f0:	81 c3 e0 08 	retl 
    15f4:	01 00 00 00 	nop 

000015f8 <interrupt_hw_handler>:
    15f8:	9d e3 bf a0 	save  %sp, -96, %sp
    15fc:	11 00 00 07 	sethi  %hi(0x1c00), %o0
    1600:	13 00 00 07 	sethi  %hi(0x1c00), %o1
    1604:	90 12 22 88 	or  %o0, 0x288, %o0
    1608:	92 12 61 80 	or  %o1, 0x180, %o1
    160c:	40 00 00 86 	call  1824 <printf>
    1610:	94 10 00 18 	mov  %i0, %o2
    1614:	03 00 00 07 	sethi  %hi(0x1c00), %g1
    1618:	c2 00 62 b4 	ld  [ %g1 + 0x2b4 ], %g1	! 1eb4 <user_irq_handler>
    161c:	80 a0 60 00 	cmp  %g1, 0
    1620:	02 80 00 04 	be  1630 <interrupt_hw_handler+0x38>
    1624:	01 00 00 00 	nop 
    1628:	9f c0 40 00 	call  %g1
    162c:	90 10 00 18 	mov  %i0, %o0
    1630:	81 c7 e0 08 	ret 
    1634:	81 e8 00 00 	restore 

00001638 <atomic_add>:
    1638:	82 10 00 08 	mov  %o0, %g1
    163c:	d0 02 00 00 	ld  [ %o0 ], %o0
    1640:	90 02 00 09 	add  %o0, %o1, %o0
    1644:	d0 20 40 00 	st  %o0, [ %g1 ]
    1648:	81 c3 e0 08 	retl 
    164c:	01 00 00 00 	nop 

00001650 <lock_lock>:
    1650:	c2 02 00 00 	ld  [ %o0 ], %g1
    1654:	80 a0 60 00 	cmp  %g1, 0
    1658:	12 bf ff fe 	bne  1650 <lock_lock>
    165c:	82 10 20 01 	mov  1, %g1
    1660:	c2 22 00 00 	st  %g1, [ %o0 ]
    1664:	81 c3 e0 08 	retl 
    1668:	01 00 00 00 	nop 

0000166c <lock_unlock>:
    166c:	81 c3 e0 08 	retl 
    1670:	c0 22 00 00 	clr  [ %o0 ]

00001674 <pause>:
    1674:	81 c3 e0 08 	retl 
    1678:	01 00 00 00 	nop 
    167c:	00 00 18 e0 	unimp  0x18e0
    1680:	00 00 18 fc 	unimp  0x18fc
    1684:	00 00 18 fc 	unimp  0x18fc
    1688:	00 00 18 fc 	unimp  0x18fc
    168c:	00 00 18 fc 	unimp  0x18fc
    1690:	00 00 1b 4c 	unimp  0x1b4c
    1694:	00 00 18 fc 	unimp  0x18fc
    1698:	00 00 18 fc 	unimp  0x18fc
    169c:	00 00 18 fc 	unimp  0x18fc
    16a0:	00 00 18 fc 	unimp  0x18fc
    16a4:	00 00 18 fc 	unimp  0x18fc
    16a8:	00 00 18 fc 	unimp  0x18fc
    16ac:	00 00 18 fc 	unimp  0x18fc
    16b0:	00 00 18 fc 	unimp  0x18fc
    16b4:	00 00 18 e0 	unimp  0x18e0
    16b8:	00 00 18 fc 	unimp  0x18fc
    16bc:	00 00 18 e0 	unimp  0x18e0
    16c0:	00 00 18 e0 	unimp  0x18e0
    16c4:	00 00 18 e0 	unimp  0x18e0
    16c8:	00 00 18 e0 	unimp  0x18e0
    16cc:	00 00 18 e0 	unimp  0x18e0
    16d0:	00 00 18 e0 	unimp  0x18e0
    16d4:	00 00 18 e0 	unimp  0x18e0
    16d8:	00 00 18 e0 	unimp  0x18e0
    16dc:	00 00 18 e0 	unimp  0x18e0
    16e0:	00 00 18 e0 	unimp  0x18e0
    16e4:	00 00 18 fc 	unimp  0x18fc
    16e8:	00 00 18 fc 	unimp  0x18fc
    16ec:	00 00 18 fc 	unimp  0x18fc
    16f0:	00 00 18 fc 	unimp  0x18fc
    16f4:	00 00 18 fc 	unimp  0x18fc
    16f8:	00 00 18 fc 	unimp  0x18fc
    16fc:	00 00 18 fc 	unimp  0x18fc
    1700:	00 00 18 fc 	unimp  0x18fc
    1704:	00 00 18 fc 	unimp  0x18fc
    1708:	00 00 18 fc 	unimp  0x18fc
    170c:	00 00 18 fc 	unimp  0x18fc
    1710:	00 00 18 fc 	unimp  0x18fc
    1714:	00 00 18 fc 	unimp  0x18fc
    1718:	00 00 18 fc 	unimp  0x18fc
    171c:	00 00 18 fc 	unimp  0x18fc
    1720:	00 00 18 fc 	unimp  0x18fc
    1724:	00 00 18 fc 	unimp  0x18fc
    1728:	00 00 18 fc 	unimp  0x18fc
    172c:	00 00 18 fc 	unimp  0x18fc
    1730:	00 00 18 fc 	unimp  0x18fc
    1734:	00 00 18 fc 	unimp  0x18fc
    1738:	00 00 18 fc 	unimp  0x18fc
    173c:	00 00 18 fc 	unimp  0x18fc
    1740:	00 00 18 fc 	unimp  0x18fc
    1744:	00 00 18 fc 	unimp  0x18fc
    1748:	00 00 18 fc 	unimp  0x18fc
    174c:	00 00 18 fc 	unimp  0x18fc
    1750:	00 00 18 fc 	unimp  0x18fc
    1754:	00 00 18 fc 	unimp  0x18fc
    1758:	00 00 18 fc 	unimp  0x18fc
    175c:	00 00 1a a4 	unimp  0x1aa4
    1760:	00 00 18 fc 	unimp  0x18fc
    1764:	00 00 18 fc 	unimp  0x18fc
    1768:	00 00 18 fc 	unimp  0x18fc
    176c:	00 00 18 fc 	unimp  0x18fc
    1770:	00 00 18 fc 	unimp  0x18fc
    1774:	00 00 18 fc 	unimp  0x18fc
    1778:	00 00 18 fc 	unimp  0x18fc
    177c:	00 00 18 fc 	unimp  0x18fc
    1780:	00 00 18 fc 	unimp  0x18fc
    1784:	00 00 18 fc 	unimp  0x18fc
    1788:	00 00 1a 7c 	unimp  0x1a7c
    178c:	00 00 1a 18 	unimp  0x1a18
    1790:	00 00 18 fc 	unimp  0x18fc
    1794:	00 00 18 fc 	unimp  0x18fc
    1798:	00 00 18 fc 	unimp  0x18fc
    179c:	00 00 18 fc 	unimp  0x18fc
    17a0:	00 00 1a 18 	unimp  0x1a18
    17a4:	00 00 18 fc 	unimp  0x18fc
    17a8:	00 00 18 fc 	unimp  0x18fc
    17ac:	00 00 18 fc 	unimp  0x18fc
    17b0:	00 00 18 fc 	unimp  0x18fc
    17b4:	00 00 18 fc 	unimp  0x18fc
    17b8:	00 00 19 dc 	unimp  0x19dc
    17bc:	00 00 1a a4 	unimp  0x1aa4
    17c0:	00 00 18 fc 	unimp  0x18fc
    17c4:	00 00 18 fc 	unimp  0x18fc
    17c8:	00 00 19 bc 	unimp  0x19bc
    17cc:	00 00 18 fc 	unimp  0x18fc
    17d0:	00 00 19 24 	unimp  0x1924
    17d4:	00 00 18 fc 	unimp  0x18fc
    17d8:	00 00 18 fc 	unimp  0x18fc
    17dc:	00 00 1a a4 	unimp  0x1aa4

000017e0 <time>:
    17e0:	9d e3 bf a0 	save  %sp, -96, %sp
    17e4:	7f ff ff 47 	call  1500 <cpu_cycles>
    17e8:	01 00 00 00 	nop 
    17ec:	80 a6 20 00 	cmp  %i0, 0
    17f0:	32 80 00 02 	bne,a   17f8 <time+0x18>
    17f4:	d0 26 00 00 	st  %o0, [ %i0 ]
    17f8:	81 c7 e0 08 	ret 
    17fc:	91 e8 00 08 	restore  %g0, %o0, %o0

00001800 <strcpy>:
    1800:	c2 0a 40 00 	ldub  [ %o1 ], %g1
    1804:	c2 2a 00 00 	stb  %g1, [ %o0 ]
    1808:	92 02 60 01 	inc  %o1
    180c:	83 28 60 18 	sll  %g1, 0x18, %g1
    1810:	80 a0 60 00 	cmp  %g1, 0
    1814:	12 bf ff fb 	bne  1800 <strcpy>
    1818:	90 02 20 01 	inc  %o0
    181c:	81 c3 e0 08 	retl 
    1820:	01 00 00 00 	nop 

00001824 <printf>:
    1824:	9d e3 bf 88 	save  %sp, -120, %sp
    1828:	09 28 00 00 	sethi  %hi(0xa0000000), %g4
    182c:	84 10 00 18 	mov  %i0, %g2
    1830:	82 07 a0 48 	add  %fp, 0x48, %g1
    1834:	f2 27 a0 48 	st  %i1, [ %fp + 0x48 ]
    1838:	f4 27 a0 4c 	st  %i2, [ %fp + 0x4c ]
    183c:	f6 27 a0 50 	st  %i3, [ %fp + 0x50 ]
    1840:	f8 27 a0 54 	st  %i4, [ %fp + 0x54 ]
    1844:	fa 27 a0 58 	st  %i5, [ %fp + 0x58 ]
    1848:	c2 27 bf fc 	st  %g1, [ %fp + -4 ]
    184c:	b0 10 20 00 	clr  %i0
    1850:	19 00 00 05 	sethi  %hi(0x1400), %o4
    1854:	a0 10 20 78 	mov  0x78, %l0
    1858:	96 10 20 30 	mov  0x30, %o3
    185c:	9e 10 3f f7 	mov  -9, %o7
    1860:	11 00 00 07 	sethi  %hi(0x1c00), %o0
    1864:	92 10 20 2d 	mov  0x2d, %o1
    1868:	94 10 20 25 	mov  0x25, %o2
    186c:	c2 08 80 00 	ldub  [ %g2 ], %g1
    1870:	83 28 60 18 	sll  %g1, 0x18, %g1
    1874:	87 38 60 18 	sra  %g1, 0x18, %g3
    1878:	80 a0 e0 00 	cmp  %g3, 0
    187c:	02 80 00 17 	be  18d8 <printf+0xb4>
    1880:	80 a0 e0 25 	cmp  %g3, 0x25
    1884:	12 80 00 08 	bne  18a4 <printf+0x80>
    1888:	84 00 a0 01 	inc  %g2
    188c:	10 80 00 17 	b  18e8 <printf+0xc4>
    1890:	e4 08 80 00 	ldub  [ %g2 ], %l2
    1894:	80 a0 e0 25 	cmp  %g3, 0x25
    1898:	02 80 00 0e 	be  18d0 <printf+0xac>
    189c:	80 a0 60 00 	cmp  %g1, 0
    18a0:	84 00 a0 01 	inc  %g2
    18a4:	87 44 00 00 	rd  %asr16, %g3
    18a8:	87 28 e0 04 	sll  %g3, 4, %g3
    18ac:	83 38 60 18 	sra  %g1, 0x18, %g1
    18b0:	c2 28 c0 04 	stb  %g1, [ %g3 + %g4 ]
    18b4:	c2 08 80 00 	ldub  [ %g2 ], %g1
    18b8:	83 28 60 18 	sll  %g1, 0x18, %g1
    18bc:	87 38 60 18 	sra  %g1, 0x18, %g3
    18c0:	80 a0 e0 00 	cmp  %g3, 0
    18c4:	12 bf ff f4 	bne  1894 <printf+0x70>
    18c8:	b0 06 20 01 	inc  %i0
    18cc:	80 a0 60 00 	cmp  %g1, 0
    18d0:	12 80 00 05 	bne  18e4 <printf+0xc0>
    18d4:	84 00 a0 01 	inc  %g2
    18d8:	81 c7 e0 08 	ret 
    18dc:	81 e8 00 00 	restore 
    18e0:	84 00 a0 01 	inc  %g2
    18e4:	e4 08 80 00 	ldub  [ %g2 ], %l2
    18e8:	82 04 bf e0 	add  %l2, -32, %g1
    18ec:	82 08 60 ff 	and  %g1, 0xff, %g1
    18f0:	80 a0 60 58 	cmp  %g1, 0x58
    18f4:	08 80 00 08 	bleu  1914 <printf+0xf0>
    18f8:	86 13 22 7c 	or  %o4, 0x27c, %g3
    18fc:	83 44 00 00 	rd  %asr16, %g1
    1900:	83 28 60 04 	sll  %g1, 4, %g1
    1904:	e4 28 40 04 	stb  %l2, [ %g1 + %g4 ]
    1908:	b0 06 20 01 	inc  %i0
    190c:	10 bf ff d8 	b  186c <printf+0x48>
    1910:	84 00 a0 01 	inc  %g2
    1914:	83 28 60 02 	sll  %g1, 2, %g1
    1918:	c2 00 c0 01 	ld  [ %g3 + %g1 ], %g1
    191c:	81 c0 40 00 	jmp  %g1
    1920:	01 00 00 00 	nop 
    1924:	c6 07 bf fc 	ld  [ %fp + -4 ], %g3
    1928:	82 07 bf f7 	add  %fp, -9, %g1
    192c:	e2 00 c0 00 	ld  [ %g3 ], %l1
    1930:	86 00 e0 04 	add  %g3, 4, %g3
    1934:	c0 2f bf f7 	clrb  [ %fp + -9 ]
    1938:	c6 27 bf fc 	st  %g3, [ %fp + -4 ]
    193c:	87 3c 60 1f 	sra  %l1, 0x1f, %g3
    1940:	81 80 e0 00 	mov  %g3, %y
    1944:	01 00 00 00 	nop 
    1948:	01 00 00 00 	nop 
    194c:	01 00 00 00 	nop 
    1950:	9a 7c 60 0a 	sdiv  %l1, 0xa, %o5
    1954:	82 00 7f ff 	add  %g1, -1, %g1
    1958:	a4 03 40 0d 	add  %o5, %o5, %l2
    195c:	87 2b 60 03 	sll  %o5, 3, %g3
    1960:	86 04 80 03 	add  %l2, %g3, %g3
    1964:	86 24 40 03 	sub  %l1, %g3, %g3
    1968:	86 00 e0 30 	add  %g3, 0x30, %g3
    196c:	a2 93 60 00 	orcc  %o5, 0, %l1
    1970:	12 bf ff f3 	bne  193c <printf+0x118>
    1974:	c6 28 40 00 	stb  %g3, [ %g1 ]
    1978:	87 28 e0 18 	sll  %g3, 0x18, %g3
    197c:	80 a0 e0 00 	cmp  %g3, 0
    1980:	22 bf ff bb 	be,a   186c <printf+0x48>
    1984:	84 00 a0 01 	inc  %g2
    1988:	82 00 60 01 	inc  %g1
    198c:	9b 44 00 00 	rd  %asr16, %o5
    1990:	9b 2b 60 04 	sll  %o5, 4, %o5
    1994:	87 38 e0 18 	sra  %g3, 0x18, %g3
    1998:	c6 2b 40 04 	stb  %g3, [ %o5 + %g4 ]
    199c:	c6 08 40 00 	ldub  [ %g1 ], %g3
    19a0:	b0 06 20 01 	inc  %i0
    19a4:	87 28 e0 18 	sll  %g3, 0x18, %g3
    19a8:	80 a0 e0 00 	cmp  %g3, 0
    19ac:	12 bf ff f8 	bne  198c <printf+0x168>
    19b0:	82 00 60 01 	inc  %g1
    19b4:	10 bf ff ae 	b  186c <printf+0x48>
    19b8:	84 00 a0 01 	inc  %g2
    19bc:	c6 07 bf fc 	ld  [ %fp + -4 ], %g3
    19c0:	c2 00 c0 00 	ld  [ %g3 ], %g1
    19c4:	86 00 e0 04 	add  %g3, 4, %g3
    19c8:	80 a0 60 00 	cmp  %g1, 0
    19cc:	02 80 00 6c 	be  1b7c <printf+0x358>
    19d0:	c6 27 bf fc 	st  %g3, [ %fp + -4 ]
    19d4:	10 bf ff f4 	b  19a4 <printf+0x180>
    19d8:	c6 08 40 00 	ldub  [ %g1 ], %g3
    19dc:	c6 07 bf fc 	ld  [ %fp + -4 ], %g3
    19e0:	82 07 bf f7 	add  %fp, -9, %g1
    19e4:	da 00 c0 00 	ld  [ %g3 ], %o5
    19e8:	86 00 e0 04 	add  %g3, 4, %g3
    19ec:	c0 2f bf f7 	clrb  [ %fp + -9 ]
    19f0:	c6 27 bf fc 	st  %g3, [ %fp + -4 ]
    19f4:	86 0b 60 07 	and  %o5, 7, %g3
    19f8:	82 00 7f ff 	add  %g1, -1, %g1
    19fc:	86 00 e0 30 	add  %g3, 0x30, %g3
    1a00:	9b 33 60 03 	srl  %o5, 3, %o5
    1a04:	80 a3 60 00 	cmp  %o5, 0
    1a08:	12 bf ff fb 	bne  19f4 <printf+0x1d0>
    1a0c:	c6 28 40 00 	stb  %g3, [ %g1 ]
    1a10:	10 bf ff de 	b  1988 <printf+0x164>
    1a14:	87 28 e0 18 	sll  %g3, 0x18, %g3
    1a18:	c2 07 bf fc 	ld  [ %fp + -4 ], %g1
    1a1c:	e2 00 40 00 	ld  [ %g1 ], %l1
    1a20:	82 00 60 04 	add  %g1, 4, %g1
    1a24:	80 a4 60 00 	cmp  %l1, 0
    1a28:	06 80 00 4f 	bl  1b64 <printf+0x340>
    1a2c:	c2 27 bf fc 	st  %g1, [ %fp + -4 ]
    1a30:	c0 2f bf f7 	clrb  [ %fp + -9 ]
    1a34:	82 07 bf f7 	add  %fp, -9, %g1
    1a38:	87 3c 60 1f 	sra  %l1, 0x1f, %g3
    1a3c:	81 80 e0 00 	mov  %g3, %y
    1a40:	01 00 00 00 	nop 
    1a44:	01 00 00 00 	nop 
    1a48:	01 00 00 00 	nop 
    1a4c:	9a 7c 60 0a 	sdiv  %l1, 0xa, %o5
    1a50:	82 00 7f ff 	add  %g1, -1, %g1
    1a54:	a4 03 40 0d 	add  %o5, %o5, %l2
    1a58:	87 2b 60 03 	sll  %o5, 3, %g3
    1a5c:	86 04 80 03 	add  %l2, %g3, %g3
    1a60:	86 24 40 03 	sub  %l1, %g3, %g3
    1a64:	86 00 e0 30 	add  %g3, 0x30, %g3
    1a68:	a2 93 60 00 	orcc  %o5, 0, %l1
    1a6c:	12 bf ff f3 	bne  1a38 <printf+0x214>
    1a70:	c6 28 40 00 	stb  %g3, [ %g1 ]
    1a74:	10 bf ff cd 	b  19a8 <printf+0x184>
    1a78:	87 28 e0 18 	sll  %g3, 0x18, %g3
    1a7c:	c2 07 bf fc 	ld  [ %fp + -4 ], %g1
    1a80:	c6 00 40 00 	ld  [ %g1 ], %g3
    1a84:	82 00 60 04 	add  %g1, 4, %g1
    1a88:	c2 27 bf fc 	st  %g1, [ %fp + -4 ]
    1a8c:	83 44 00 00 	rd  %asr16, %g1
    1a90:	83 28 60 04 	sll  %g1, 4, %g1
    1a94:	c6 28 40 04 	stb  %g3, [ %g1 + %g4 ]
    1a98:	b0 06 20 01 	inc  %i0
    1a9c:	10 bf ff 74 	b  186c <printf+0x48>
    1aa0:	84 00 a0 01 	inc  %g2
    1aa4:	c2 07 bf fc 	ld  [ %fp + -4 ], %g1
    1aa8:	da 00 40 00 	ld  [ %g1 ], %o5
    1aac:	82 00 60 04 	add  %g1, 4, %g1
    1ab0:	a8 10 20 00 	clr  %l4
    1ab4:	c2 27 bf fc 	st  %g1, [ %fp + -4 ]
    1ab8:	c0 2f bf f7 	clrb  [ %fp + -9 ]
    1abc:	82 07 bf f7 	add  %fp, -9, %g1
    1ac0:	a6 0b 60 0f 	and  %o5, 0xf, %l3
    1ac4:	a2 04 e0 30 	add  %l3, 0x30, %l1
    1ac8:	80 a4 60 39 	cmp  %l1, 0x39
    1acc:	04 80 00 03 	ble  1ad8 <printf+0x2b4>
    1ad0:	86 10 00 11 	mov  %l1, %g3
    1ad4:	86 04 e0 57 	add  %l3, 0x57, %g3
    1ad8:	82 00 7f ff 	add  %g1, -1, %g1
    1adc:	c6 28 40 00 	stb  %g3, [ %g1 ]
    1ae0:	9b 33 60 04 	srl  %o5, 4, %o5
    1ae4:	80 a3 60 00 	cmp  %o5, 0
    1ae8:	12 bf ff f6 	bne  1ac0 <printf+0x29c>
    1aec:	a8 05 20 01 	inc  %l4
    1af0:	9b 2c a0 18 	sll  %l2, 0x18, %o5
    1af4:	9b 3b 60 18 	sra  %o5, 0x18, %o5
    1af8:	80 a3 60 70 	cmp  %o5, 0x70
    1afc:	12 bf ff a3 	bne  1988 <printf+0x164>
    1b00:	87 28 e0 18 	sll  %g3, 0x18, %g3
    1b04:	80 a5 20 07 	cmp  %l4, 7
    1b08:	34 80 00 0d 	bg,a   1b3c <printf+0x318>
    1b0c:	e0 28 7f ff 	stb  %l0, [ %g1 + -1 ]
    1b10:	a2 05 3f f8 	add  %l4, -8, %l1
    1b14:	86 10 20 00 	clr  %g3
    1b18:	9a 00 40 03 	add  %g1, %g3, %o5
    1b1c:	86 00 ff ff 	add  %g3, -1, %g3
    1b20:	80 a0 c0 11 	cmp  %g3, %l1
    1b24:	12 bf ff fd 	bne  1b18 <printf+0x2f4>
    1b28:	d6 2b 7f ff 	stb  %o3, [ %o5 + -1 ]
    1b2c:	86 38 00 14 	xnor  %g0, %l4, %g3
    1b30:	86 23 c0 03 	sub  %o7, %g3, %g3
    1b34:	82 00 40 03 	add  %g1, %g3, %g1
    1b38:	e0 28 7f ff 	stb  %l0, [ %g1 + -1 ]
    1b3c:	07 0c 00 00 	sethi  %hi(0x30000000), %g3
    1b40:	82 00 7f fe 	add  %g1, -2, %g1
    1b44:	10 bf ff 91 	b  1988 <printf+0x164>
    1b48:	d6 28 40 00 	stb  %o3, [ %g1 ]
    1b4c:	83 44 00 00 	rd  %asr16, %g1
    1b50:	83 28 60 04 	sll  %g1, 4, %g1
    1b54:	d4 28 40 04 	stb  %o2, [ %g1 + %g4 ]
    1b58:	b0 06 20 01 	inc  %i0
    1b5c:	10 bf ff 44 	b  186c <printf+0x48>
    1b60:	84 00 a0 01 	inc  %g2
    1b64:	a2 20 00 11 	neg  %l1
    1b68:	83 44 00 00 	rd  %asr16, %g1
    1b6c:	83 28 60 04 	sll  %g1, 4, %g1
    1b70:	d2 28 40 04 	stb  %o1, [ %g1 + %g4 ]
    1b74:	10 bf ff af 	b  1a30 <printf+0x20c>
    1b78:	b0 06 20 01 	inc  %i0
    1b7c:	86 10 20 28 	mov  0x28, %g3
    1b80:	10 bf ff 89 	b  19a4 <printf+0x180>
    1b84:	82 12 22 a0 	or  %o0, 0x2a0, %g1

00001b88 <strcmp_b>:
    1b88:	c4 4a 00 00 	ldsb  [ %o0 ], %g2
    1b8c:	80 a0 a0 00 	cmp  %g2, 0
    1b90:	02 80 00 0f 	be  1bcc <strcmp_b+0x44>
    1b94:	82 10 00 08 	mov  %o0, %g1
    1b98:	d0 4a 40 00 	ldsb  [ %o1 ], %o0
    1b9c:	90 a0 80 08 	subcc  %g2, %o0, %o0
    1ba0:	22 80 00 07 	be,a   1bbc <strcmp_b+0x34>
    1ba4:	82 00 60 01 	inc  %g1
    1ba8:	30 80 00 0c 	b,a   1bd8 <strcmp_b+0x50>
    1bac:	d0 4a 40 00 	ldsb  [ %o1 ], %o0
    1bb0:	90 a0 80 08 	subcc  %g2, %o0, %o0
    1bb4:	12 80 00 09 	bne  1bd8 <strcmp_b+0x50>
    1bb8:	82 00 60 01 	inc  %g1
    1bbc:	c4 48 40 00 	ldsb  [ %g1 ], %g2
    1bc0:	80 a0 a0 00 	cmp  %g2, 0
    1bc4:	12 bf ff fa 	bne  1bac <strcmp_b+0x24>
    1bc8:	92 02 60 01 	inc  %o1
    1bcc:	d0 4a 40 00 	ldsb  [ %o1 ], %o0
    1bd0:	81 c3 e0 08 	retl 
    1bd4:	90 20 00 08 	neg  %o0
    1bd8:	81 c3 e0 08 	retl 
    1bdc:	01 00 00 00 	nop 

00001be0 <strcmp>:
    1be0:	80 8a 20 03 	btst  3, %o0
    1be4:	12 80 00 09 	bne  1c08 <strcmp+0x28>
    1be8:	80 8a 60 03 	btst  3, %o1
    1bec:	32 80 00 08 	bne,a   1c0c <strcmp+0x2c>
    1bf0:	90 02 3f ff 	add  %o0, -1, %o0
    1bf4:	c2 02 00 00 	ld  [ %o0 ], %g1
    1bf8:	c4 02 40 00 	ld  [ %o1 ], %g2
    1bfc:	80 a0 40 02 	cmp  %g1, %g2
    1c00:	22 80 00 07 	be,a   1c1c <strcmp+0x3c>
    1c04:	05 1f df df 	sethi  %hi(0x7f7f7c00), %g2
    1c08:	90 02 3f ff 	add  %o0, -1, %o0
    1c0c:	92 02 7f ff 	add  %o1, -1, %o1
    1c10:	82 13 c0 00 	mov  %o7, %g1
    1c14:	7f ff ff dd 	call  1b88 <strcmp_b>
    1c18:	9e 10 40 00 	mov  %g1, %o7
    1c1c:	09 20 20 20 	sethi  %hi(0x80808000), %g4
    1c20:	84 10 a3 7f 	or  %g2, 0x37f, %g2
    1c24:	10 80 00 08 	b  1c44 <strcmp+0x64>
    1c28:	88 11 20 80 	or  %g4, 0x80, %g4
    1c2c:	92 02 60 04 	add  %o1, 4, %o1
    1c30:	c2 02 00 00 	ld  [ %o0 ], %g1
    1c34:	c6 02 40 00 	ld  [ %o1 ], %g3
    1c38:	80 a0 40 03 	cmp  %g1, %g3
    1c3c:	32 bf ff f4 	bne,a   1c0c <strcmp+0x2c>
    1c40:	90 02 3f ff 	add  %o0, -1, %o0
    1c44:	86 08 40 02 	and  %g1, %g2, %g3
    1c48:	86 00 c0 02 	add  %g3, %g2, %g3
    1c4c:	82 10 c0 01 	or  %g3, %g1, %g1
    1c50:	80 a9 00 01 	andncc  %g4, %g1, %g0
    1c54:	22 bf ff f6 	be,a   1c2c <strcmp+0x4c>
    1c58:	90 02 20 04 	add  %o0, 4, %o0
    1c5c:	10 bf ff ec 	b  1c0c <strcmp+0x2c>
    1c60:	90 02 3f ff 	add  %o0, -1, %o0

00001c64 <malloc>:
    1c64:	03 00 00 07 	sethi  %hi(0x1c00), %g1
    1c68:	c6 00 62 b8 	ld  [ %g1 + 0x2b8 ], %g3	! 1eb8 <heap_pointer>
    1c6c:	80 a0 e0 00 	cmp  %g3, 0
    1c70:	02 80 00 07 	be  1c8c <malloc+0x28>
    1c74:	84 00 c0 08 	add  %g3, %o0, %g2
    1c78:	90 10 00 03 	mov  %g3, %o0
    1c7c:	84 00 a0 0f 	add  %g2, 0xf, %g2
    1c80:	84 08 bf f0 	and  %g2, -16, %g2
    1c84:	81 c3 e0 08 	retl 
    1c88:	c4 20 62 b8 	st  %g2, [ %g1 + 0x2b8 ]
    1c8c:	07 00 00 07 	sethi  %hi(0x1c00), %g3
    1c90:	86 10 e2 bc 	or  %g3, 0x2bc, %g3	! 1ebc <_heap>
    1c94:	86 00 e0 0f 	add  %g3, 0xf, %g3
    1c98:	86 08 ff f0 	and  %g3, -16, %g3
    1c9c:	84 00 c0 08 	add  %g3, %o0, %g2
    1ca0:	90 10 00 03 	mov  %g3, %o0
    1ca4:	84 00 a0 0f 	add  %g2, 0xf, %g2
    1ca8:	84 08 bf f0 	and  %g2, -16, %g2
    1cac:	81 c3 e0 08 	retl 
    1cb0:	c4 20 62 b8 	st  %g2, [ %g1 + 0x2b8 ]

00001cb4 <free>:
    1cb4:	81 c3 e0 08 	retl 
    1cb8:	01 00 00 00 	nop 

00001cbc <trap>:
    1cbc:	91 d0 20 00 	ta  0
    1cc0:	81 c3 e0 08 	retl 
    1cc4:	01 00 00 00 	nop 

00001cc8 <exit>:
    1cc8:	91 d0 20 00 	ta  0
    1ccc:	30 80 00 00 	b,a   1ccc <exit+0x4>

00001cd0 <abort>:
    1cd0:	91 d0 20 00 	ta  0
    1cd4:	30 80 00 00 	b,a   1cd4 <abort+0x4>

00001cd8 <memcpy>:
    1cd8:	86 10 00 08 	mov  %o0, %g3
    1cdc:	80 8a 20 03 	btst  3, %o0
    1ce0:	12 80 00 16 	bne  1d38 <memcpy+0x60>
    1ce4:	88 10 00 09 	mov  %o1, %g4
    1ce8:	80 8a 60 03 	btst  3, %o1
    1cec:	12 80 00 14 	bne  1d3c <memcpy+0x64>
    1cf0:	80 a2 a0 00 	cmp  %o2, 0
    1cf4:	80 a2 a0 03 	cmp  %o2, 3
    1cf8:	08 80 00 11 	bleu  1d3c <memcpy+0x64>
    1cfc:	80 a2 a0 00 	cmp  %o2, 0
    1d00:	82 10 20 00 	clr  %g1
    1d04:	c4 02 40 01 	ld  [ %o1 + %g1 ], %g2
    1d08:	c4 22 00 01 	st  %g2, [ %o0 + %g1 ]
    1d0c:	82 00 60 04 	add  %g1, 4, %g1
    1d10:	84 22 80 01 	sub  %o2, %g1, %g2
    1d14:	80 a0 a0 03 	cmp  %g2, 3
    1d18:	38 bf ff fc 	bgu,a   1d08 <memcpy+0x30>
    1d1c:	c4 02 40 01 	ld  [ %o1 + %g1 ], %g2
    1d20:	94 02 bf fc 	add  %o2, -4, %o2
    1d24:	88 0a bf fc 	and  %o2, -4, %g4
    1d28:	94 0a a0 03 	and  %o2, 3, %o2
    1d2c:	88 01 20 04 	add  %g4, 4, %g4
    1d30:	86 02 00 04 	add  %o0, %g4, %g3
    1d34:	88 02 40 04 	add  %o1, %g4, %g4
    1d38:	80 a2 a0 00 	cmp  %o2, 0
    1d3c:	02 80 00 08 	be  1d5c <memcpy+0x84>
    1d40:	82 10 20 00 	clr  %g1
    1d44:	c4 09 00 01 	ldub  [ %g4 + %g1 ], %g2
    1d48:	c4 28 c0 01 	stb  %g2, [ %g3 + %g1 ]
    1d4c:	82 00 60 01 	inc  %g1
    1d50:	80 a2 80 01 	cmp  %o2, %g1
    1d54:	32 bf ff fd 	bne,a   1d48 <memcpy+0x70>
    1d58:	c4 09 00 01 	ldub  [ %g4 + %g1 ], %g2
    1d5c:	81 c3 e0 08 	retl 
    1d60:	01 00 00 00 	nop 

00001d64 <__CTOR_LIST__>:
	...

00001d6c <__CTOR_END__>:
	...

Disassembly of section .data:

00001d78 <__errno>:
    1d78:	00 00 00 00 	unimp  0

00001d7c <in_trap_handler>:
    1d7c:	00 00 00 00 	unimp  0

00001d80 <__FUNCTION__.1401>:
    1d80:	69 6e 74 65 	call  a5b9ef14 <RAM_END+0xa5a9ef14>
    1d84:	72 72 75 70 	call  c9c9f344 <RAM_END+0xc9b9f344>
    1d88:	74 5f 68 77 	call  d17dbf64 <RAM_END+0xd16dbf64>
    1d8c:	5f 68 61 6e 	call  7da1a344 <RAM_END+0x7d91a344>
    1d90:	64 6c 65 72 	call  91b1b358 <RAM_END+0x91a1b358>
    1d94:	00 00 00 00 	unimp  0
    1d98:	49 52 51 20 	call  25496218 <RAM_END+0x25396218>
    1d9c:	68 61 6e 64 	call  a185d72c <RAM_END+0xa175d72c>
    1da0:	6c 65 0a 00 	call  b19445a0 <RAM_END+0xb18445a0>
    1da4:	00 00 00 00 	unimp  0
    1da8:	49 52 51 20 	call  25496228 <RAM_END+0x25396228>
    1dac:	25 64 20 72 	unknown
    1db0:	65 63 65 69 	call  958db354 <RAM_END+0x957db354>
    1db4:	76 65 64 20 	call  d995ae34 <RAM_END+0xd985ae34>
    1db8:	61 74 20 63 	call  85d09f44 <RAM_END+0x85c09f44>
    1dbc:	79 63 6c 65 	call  e58dcf50 <RAM_END+0xe57dcf50>
    1dc0:	20 25 64 20 	unknown
    1dc4:	6f 6e 20 63 	call  bdb89f50 <RAM_END+0xbda89f50>
    1dc8:	70 75 20 25 	call  c1d49e5c <RAM_END+0xc1c49e5c>
    1dcc:	64 2c 20 25 	call  90b09e60 <RAM_END+0x90a09e60>
    1dd0:	64 20 69 6e 	call  9081c388 <RAM_END+0x9071c388>
    1dd4:	74 65 72 72 	call  d195e79c <RAM_END+0xd185e79c>
    1dd8:	75 70 74 73 	call  d5c1efa4 <RAM_END+0xd5b1efa4>
    1ddc:	20 72 65 63 	unknown
    1de0:	65 69 76 65 	call  95a5f774 <RAM_END+0x9595f774>
    1de4:	64 0a 0a 00 	call  902845e4 <RAM_END+0x901845e4>
    1de8:	48 65 6c 6c 	call  2195cf98 <RAM_END+0x2185cf98>
    1dec:	6f 20 66 72 	call  bc81b7b4 <RAM_END+0xbc71b7b4>
    1df0:	6f 6d 20 70 	call  bdb49fb0 <RAM_END+0xbda49fb0>
    1df4:	72 6f 63 65 	call  c9bdab88 <RAM_END+0xc9adab88>
    1df8:	73 73 6f 72 	call  cdcddbc0 <RAM_END+0xcdbddbc0>
    1dfc:	20 25 64 0a 	unknown
	...
    1e08:	74 69 6d 65 	call  d1a5d39c <RAM_END+0xd195d39c>
    1e0c:	72 20 62 61 	call  c881a790 <RAM_END+0xc871a790>
    1e10:	73 65 3a 25 	call  cd9506a4 <RAM_END+0xcd8506a4>
    1e14:	78 0a 00 00 	call  e0281e14 <RAM_END+0xe0181e14>
    1e18:	54 49 4d 45 	call  5125532c <RAM_END+0x5115532c>
    1e1c:	52 5f 53 50 	call  497d6b5c <RAM_END+0x496d6b5c>
    1e20:	41 4e 3a 25 	call  53906b4 <RAM_END+0x52906b4>
    1e24:	64 0a 00 00 	call  90281e24 <RAM_END+0x90181e24>
    1e28:	54 49 4d 45 	call  5125533c <RAM_END+0x5115533c>
    1e2c:	52 5f 52 45 	call  497d6740 <RAM_END+0x496d6740>
    1e30:	52 49 4f 44 	call  49255b40 <RAM_END+0x49155b40>
    1e34:	3a 25 64 0a 	unknown
	...
    1e40:	74 69 6d 65 	call  d1a5d3d4 <RAM_END+0xd195d3d4>
    1e44:	72 20 76 61 	call  c881f7c8 <RAM_END+0xc871f7c8>
    1e48:	6c 75 65 3a 	call  b1d5b330 <RAM_END+0xb1c5b330>
    1e4c:	25 64 0a 00 	unknown
    1e50:	0a 45 78 63 	unknown
    1e54:	65 70 74 69 	call  95c1eff8 <RAM_END+0x95b1eff8>
    1e58:	6f 6e 20 61 	call  bdb89fdc <RAM_END+0xbda89fdc>
    1e5c:	74 20 30 78 	call  d080e03c <RAM_END+0xd070e03c>
    1e60:	25 78 3a 20 	unknown
    1e64:	30 78 25 78 	unknown
    1e68:	0a 00 00 00 	unknown
    1e6c:	00 00 00 00 	unimp  0
    1e70:	53 79 73 63 	call  4de5ebfc <RAM_END+0x4dd5ebfc>
    1e74:	61 6c 6c 20 	call  85b1cef4 <RAM_END+0x85a1cef4>
    1e78:	61 74 20 30 	call  85d09f38 <RAM_END+0x85c09f38>
    1e7c:	78 25 78 3a 	call  e095ff64 <RAM_END+0xe085ff64>
    1e80:	20 30 78 25 	unknown
    1e84:	78 0a 00 00 	call  e0281e84 <RAM_END+0xe0181e84>
    1e88:	45 78 63 65 	call  15e1ac1c <RAM_END+0x15d1ac1c>
    1e8c:	70 74 69 6f 	call  c1d1c448 <RAM_END+0xc1c1c448>
    1e90:	6e 3a 20 25 	call  b8e89f24 <RAM_END+0xb8d89f24>
    1e94:	73 20 69 72 	call  cc81c45c <RAM_END+0xcc71c45c>
    1e98:	71 20 25 64 	call  c480b428 <RAM_END+0xc470b428>
    1e9c:	0a 00 00 00 	unknown
    1ea0:	28 6e 75 6c 	unknown
    1ea4:	6c 29 00 00 	call  b0a41ea4 <RAM_END+0xb0941ea4>

Disassembly of section .bss:

00001ea8 <_bss_start>:
    1ea8:	00 00 00 00 	unimp  0

00001eac <user_ex_handler>:
    1eac:	00 00 00 00 	unimp  0

00001eb0 <user_sys_handler>:
    1eb0:	00 00 00 00 	unimp  0

00001eb4 <user_irq_handler>:
    1eb4:	00 00 00 00 	unimp  0

00001eb8 <heap_pointer>:
    1eb8:	00 00 00 00 	unimp  0

Disassembly of section .comment:

00000000 <.comment>:
   0:	47 43 43 3a 	call  1d0d0ce8 <RAM_END+0x1cfd0ce8>
   4:	20 28 47 4e 	unknown
   8:	55 29 20 34 	call  54a480d8 <RAM_END+0x549480d8>
   c:	2e 35 2e 32 	unknown
	...

Disassembly of section .debug_aranges:

00000000 <.debug_aranges>:
   0:	00 00 00 1c 	unimp  0x1c
   4:	00 02 00 00 	unimp  0x20000
   8:	00 00 04 00 	unimp  0x400
   c:	00 00 00 00 	unimp  0
  10:	00 00 12 98 	unimp  0x1298
  14:	00 00 01 38 	unimp  0x138
	...
  20:	00 00 00 1c 	unimp  0x1c
  24:	00 02 00 00 	unimp  0x20000
  28:	05 79 04 00 	unknown
  2c:	00 00 00 00 	unimp  0
  30:	00 00 13 d0 	unimp  0x13d0
  34:	00 00 02 ac 	unimp  0x2ac
	...
  40:	00 00 00 1c 	unimp  0x1c
  44:	00 02 00 00 	unimp  0x20000
  48:	0f 24 04 00 	sethi  %hi(0x90100000), %g7
  4c:	00 00 00 00 	unimp  0
  50:	00 00 17 e0 	unimp  0x17e0
  54:	00 00 04 84 	unimp  0x484
	...
  60:	00 00 00 1c 	unimp  0x1c
  64:	00 02 00 00 	unimp  0x20000
  68:	15 53 04 00 	unknown
  6c:	00 00 00 00 	unimp  0
  70:	00 00 1c 64 	unimp  0x1c64
  74:	00 00 01 00 	unimp  0x100
	...

Disassembly of section .debug_pubnames:

00000000 <.debug_pubnames>:
   0:	00 00 00 27 	unimp  0x27
   4:	00 02 00 00 	unimp  0x20000
   8:	00 00 00 00 	unimp  0
   c:	05 2d 00 00 	sethi  %hi(0xb4000000), %g2
  10:	01 6e 69 72 	unknown
  14:	71 5f 68 61 	call  c57da198 <RAM_END+0xc56da198>
  18:	6e 64 6c 65 	call  b991b1ac <RAM_END+0xb981b1ac>
  1c:	72 00 00 00 	call  c800001c <RAM_END+0xc7f0001c>
  20:	02 a4 6d 61 	be  ff91b5a4 <RAM_END+0xff81b5a4>
  24:	69 6e 00 00 	call  a5b80024 <RAM_END+0xa5a80024>
  28:	00 00 00 00 	unimp  0
  2c:	00 01 77 00 	unimp  0x17700
  30:	02 00 00 05 	unknown
  34:	79 00 00 09 	call  e4000058 <RAM_END+0xe3f00058>
  38:	ab 00 00 02 	taddcc  %g0, %g2, %l5
  3c:	78 70 75 74 	call  e1c1d60c <RAM_END+0xe1b1d60c>
  40:	63 68 61 72 	call  8da18608 <RAM_END+0x8d918608>
  44:	00 00 00 03 	unimp  0x3
  48:	0b 67 65 74 	unknown
  4c:	63 68 61 72 	call  8da18614 <RAM_END+0x8d918614>
  50:	00 00 00 03 	unimp  0x3
  54:	90 70 75 74 	udiv  %g1, -2700, %o0
  58:	73 00 00 00 	call  cc000058 <RAM_END+0xcbf00058>
  5c:	04 e1 70 75 	unknown
  60:	74 69 00 00 	call  d1a40060 <RAM_END+0xd1940060>
  64:	00 05 93 72 	unimp  0x59372
  68:	75 6e 5f 63 	call  d5b97df4 <RAM_END+0xd5a97df4>
  6c:	79 63 6c 65 	call  e58db200 <RAM_END+0xe57db200>
  70:	73 00 00 00 	call  cc000070 <RAM_END+0xcbf00070>
  74:	05 aa 63 70 	fblg  ffa98e34 <RAM_END+0xff998e34>
  78:	75 5f 63 79 	call  d57d8e5c <RAM_END+0xd56d8e5c>
  7c:	63 6c 65 73 	call  8db19648 <RAM_END+0x8da19648>
  80:	00 00 00 05 	unimp  0x5
  84:	c1 73 65 74 	unknown
  88:	5f 65 78 5f 	call  7d95e204 <RAM_END+0x7d85e204>
  8c:	68 61 6e 64 	call  a185ba1c <RAM_END+0xa175ba1c>
  90:	6c 65 72 00 	call  b195c890 <RAM_END+0xb185c890>
  94:	00 00 05 ed 	unimp  0x5ed
  98:	69 6e 74 65 	call  a5b9d22c <RAM_END+0xa5a9d22c>
  9c:	72 72 75 70 	call  c9c9d65c <RAM_END+0xc9b9d65c>
  a0:	74 5f 65 78 	call  d17d9680 <RAM_END+0xd16d9680>
  a4:	5f 68 61 6e 	call  7da1865c <RAM_END+0x7d91865c>
  a8:	64 6c 65 72 	call  91b19670 <RAM_END+0x91a19670>
  ac:	00 00 00 06 	unimp  0x6
  b0:	50 73 65 74 	call  41cd9680 <RAM_END+0x41bd9680>
  b4:	5f 73 79 73 	call  7dcde680 <RAM_END+0x7dbde680>
  b8:	5f 68 61 6e 	call  7da18670 <RAM_END+0x7d918670>
  bc:	64 6c 65 72 	call  91b19684 <RAM_END+0x91a19684>
  c0:	00 00 00 06 	unimp  0x6
  c4:	7c 69 6e 74 	call  f1a5ba94 <RAM_END+0xf195ba94>
  c8:	65 72 72 75 	call  95c9ca9c <RAM_END+0x95b9ca9c>
  cc:	70 74 5f 73 	call  c1d17e98 <RAM_END+0xc1c17e98>
  d0:	79 73 5f 68 	call  e5cd7e70 <RAM_END+0xe5bd7e70>
  d4:	61 6e 64 6c 	call  85b99284 <RAM_END+0x85a99284>
  d8:	65 72 00 00 	call  95c800d8 <RAM_END+0x95b800d8>
  dc:	00 06 d0 73 	unimp  0x6d073
  e0:	65 74 5f 69 	call  95d17e84 <RAM_END+0x95c17e84>
  e4:	72 71 5f 68 	call  c9c57e84 <RAM_END+0xc9b57e84>
  e8:	61 6e 64 6c 	call  85b99298 <RAM_END+0x85a99298>
  ec:	65 72 00 00 	call  95c800ec <RAM_END+0x95b800ec>
  f0:	00 06 fc 65 	unimp  0x6fc65
  f4:	6e 61 62 6c 	call  b9858aa4 <RAM_END+0xb9758aa4>
  f8:	65 5f 68 77 	call  957da2d4 <RAM_END+0x956da2d4>
  fc:	5f 69 72 71 	call  7da5cac0 <RAM_END+0x7d95cac0>
 100:	00 00 00 07 	unimp  0x7
 104:	3f 64 69 73 	unknown
 108:	61 62 6c 65 	call  8589b29c <RAM_END+0x8579b29c>
 10c:	5f 68 77 5f 	call  7da1de88 <RAM_END+0x7d91de88>
 110:	69 72 71 00 	call  a5c9c510 <RAM_END+0xa5b9c510>
 114:	00 00 07 82 	unimp  0x782
 118:	69 6e 74 65 	call  a5b9d2ac <RAM_END+0xa5a9d2ac>
 11c:	72 72 75 70 	call  c9c9d6dc <RAM_END+0xc9b9d6dc>
 120:	74 5f 68 77 	call  d17da2fc <RAM_END+0xd16da2fc>
 124:	5f 68 61 6e 	call  7da186dc <RAM_END+0x7d9186dc>
 128:	64 6c 65 72 	call  91b196f0 <RAM_END+0x91a196f0>
 12c:	00 00 00 07 	unimp  0x7
 130:	ce 61 74 6f 	unknown
 134:	6d 69 63 5f 	call  b5a58eb0 <RAM_END+0xb5958eb0>
 138:	61 64 64 00 	call  85919138 <RAM_END+0x85819138>
 13c:	00 00 08 84 	unimp  0x884
 140:	6c 6f 63 6b 	call  b1bd8eec <RAM_END+0xb1ad8eec>
 144:	5f 6c 6f 63 	call  7db1bed0 <RAM_END+0x7da1bed0>
 148:	6b 00 00 00 	call  ac000148 <RAM_END+0xabf00148>
 14c:	09 11 6c 6f 	sethi  %hi(0x45b1bc00), %g4
 150:	63 6b 5f 75 	call  8dad7f24 <RAM_END+0x8d9d7f24>
 154:	6e 6c 6f 63 	call  b9b1bee0 <RAM_END+0xb9a1bee0>
 158:	6b 00 00 00 	call  ac000158 <RAM_END+0xabf00158>
 15c:	09 39 70 61 	sethi  %hi(0xe5c18400), %g4
 160:	75 73 65 00 	call  d5cd9560 <RAM_END+0xd5bd9560>
 164:	00 00 09 74 	unimp  0x974
 168:	75 73 65 72 	call  d5cd9730 <RAM_END+0xd5bd9730>
 16c:	5f 65 78 5f 	call  7d95e2e8 <RAM_END+0x7d85e2e8>
 170:	68 61 6e 64 	call  a185bb00 <RAM_END+0xa175bb00>
 174:	6c 65 72 00 	call  b195c974 <RAM_END+0xb185c974>
 178:	00 00 09 86 	unimp  0x986
 17c:	75 73 65 72 	call  d5cd9744 <RAM_END+0xd5bd9744>
 180:	5f 73 79 73 	call  7dcde74c <RAM_END+0x7dbde74c>
 184:	5f 68 61 6e 	call  7da1873c <RAM_END+0x7d91873c>
 188:	64 6c 65 72 	call  91b19750 <RAM_END+0x91a19750>
 18c:	00 00 00 09 	unimp  0x9
 190:	98 75 73 65 	udiv  %l5, -3227, %o4
 194:	72 5f 69 72 	call  c97da75c <RAM_END+0xc96da75c>
 198:	71 5f 68 61 	call  c57da31c <RAM_END+0xc56da31c>
 19c:	6e 64 6c 65 	call  b991b330 <RAM_END+0xb981b330>
 1a0:	72 00 00 00 	call  c80001a0 <RAM_END+0xc7f001a0>
 1a4:	00 00 00 00 	unimp  0
 1a8:	00 45 00 02 	unknown
 1ac:	00 00 0f 24 	unimp  0xf24
 1b0:	00 00 06 2f 	unimp  0x62f
 1b4:	00 00 01 30 	unimp  0x130
 1b8:	74 69 6d 65 	call  d1a5b74c <RAM_END+0xd195b74c>
 1bc:	00 00 00 01 	unimp  0x1
 1c0:	6e 73 74 72 	call  b9cdd388 <RAM_END+0xb9bdd388>
 1c4:	63 70 79 00 	call  8dc1e5c4 <RAM_END+0x8db1e5c4>
 1c8:	00 00 01 ba 	unimp  0x1ba
 1cc:	70 72 69 6e 	call  c1c9a784 <RAM_END+0xc1b9a784>
 1d0:	74 66 00 00 	call  d19801d0 <RAM_END+0xd18801d0>
 1d4:	00 05 56 73 	unimp  0x55673
 1d8:	74 72 63 6d 	call  d1c98f8c <RAM_END+0xd1b98f8c>
 1dc:	70 5f 62 00 	call  c17d89dc <RAM_END+0xc16d89dc>
 1e0:	00 00 05 a8 	unimp  0x5a8
 1e4:	73 74 72 63 	call  cdd1cb70 <RAM_END+0xcdc1cb70>
 1e8:	6d 70 00 00 	call  b5c001e8 <RAM_END+0xb5b001e8>
 1ec:	00 00 00 00 	unimp  0
 1f0:	00 00 49 00 	unimp  0x4900
 1f4:	02 00 00 15 	unknown
 1f8:	53 00 00 02 	call  4c000200 <RAM_END+0x4bf00200>
 1fc:	57 00 00 00 	call  5c0001fc <RAM_END+0x5bf001fc>
 200:	a9 6d 61 6c 	unknown
 204:	6c 6f 63 00 	call  b1bd8e04 <RAM_END+0xb1ad8e04>
 208:	00 00 01 14 	unimp  0x114
 20c:	66 72 65 65 	call  99c997a0 <RAM_END+0x99b997a0>
 210:	00 00 00 01 	unimp  0x1
 214:	3a 74 72 61 	unknown
 218:	70 00 00 00 	call  c0000218 <RAM_END+0xbff00218>
 21c:	01 4a 65 78 	unknown
 220:	69 74 00 00 	call  a5d00220 <RAM_END+0xa5c00220>
 224:	00 01 75 61 	unimp  0x17561
 228:	62 6f 72 74 	call  89bdcbf8 <RAM_END+0x89adcbf8>
 22c:	00 00 00 01 	unimp  0x1
 230:	b3 6d 65 6d 	unknown
 234:	63 70 79 00 	call  8dc1e634 <RAM_END+0x8db1e634>
 238:	00 00 00 00 	unimp  0

Disassembly of section .debug_info:

00000000 <.debug_info>:
       0:	00 00 05 29 	unimp  0x529
       4:	00 02 00 00 	unimp  0x20000
       8:	00 00 04 01 	unimp  0x401
       c:	00 00 00 0f 	unimp  0xf
      10:	01 00 00 00 	nop 
      14:	dc 00 00 01 	ld  [ %g0 + %g1 ], %sp
      18:	3f 00 00 12 	sethi  %hi(0x4800), %i7
      1c:	98 00 00 13 	add  %g0, %l3, %o4
      20:	d0 00 00 00 	ld  [ %g0 ], %o0
      24:	00 02 00 00 	unimp  0x20000
      28:	00 e3 04 04 	unknown
      2c:	1e 00 00 00 	unknown
      30:	50 03 00 00 	call  400c0030 <RAM_END+0x3ffc0030>
      34:	01 12 00 03 	sethi  %hi(0x48000c00), %g0
      38:	00 00 01 34 	unimp  0x134
      3c:	01 03 00 00 	sethi  %hi(0xc000000), %g0
      40:	01 27 02 03 	sethi  %hi(0x9c080c00), %g0
      44:	00 00 00 bb 	unimp  0xbb
      48:	03 03 00 00 	sethi  %hi(0xc000000), %g1
      4c:	00 1b 04 00 	unimp  0x1b0400
      50:	02 00 00 00 	unknown
      54:	f8 04 04 26 	ld  [ %l0 + %g6 ], %i4
      58:	00 00 00 69 	unimp  0x69
      5c:	03 00 00 00 	sethi  %hi(0), %g1
      60:	2c 01 03 00 	unknown
      64:	00 00 98 02 	unimp  0x9802
      68:	00 04 00 00 	unimp  0x40000
      6c:	01 1e 05 20 	sethi  %hi(0x78148000), %g0
      70:	00 00 00 74 	unimp  0x74
      74:	05 04 07 00 	sethi  %hi(0x101c0000), %g2
      78:	00 00 79 05 	unimp  0x7905
      7c:	02 07 00 00 	unknown
      80:	00 73 05 01 	unknown
      84:	08 00 00 00 	unknown
      88:	65 06 04 05 	call  9418109c <RAM_END+0x9408109c>
      8c:	69 6e 74 00 	call  a5b9d08c <RAM_END+0xa5a9d08c>
      90:	05 02 05 00 	sethi  %hi(0x8140000), %g2
      94:	00 01 08 05 	unimp  0x10805
      98:	01 06 00 00 	sethi  %hi(0x18000000), %g0
      9c:	00 6e 04 00 	unknown
      a0:	00 00 00 05 	unimp  0x5
      a4:	2a 00 00 00 	unknown
      a8:	74 07 04 08 	call  d01c10c8 <RAM_END+0xd00c10c8>
      ac:	00 00 00 07 	unimp  0x7
      b0:	02 4c 00 00 	unknown
      b4:	00 89 03 00 	bn  240cb4 <RAM_END+0x140cb4>
      b8:	00 00 c7 09 	unimp  0xc709
      bc:	74 6d 70 00 	call  d1b5c0bc <RAM_END+0xd1a5c0bc>
      c0:	02 4e 00 00 	unknown
      c4:	00 69 00 0a 	unknown
      c8:	00 00 00 3a 	unimp  0x3a
      cc:	03 43 01 00 	unknown
      d0:	00 00 69 03 	unimp  0x6903
      d4:	00 00 01 05 	unimp  0x105
      d8:	0b 00 00 00 	sethi  %hi(0), %g5
      dc:	48 03 43 00 	call  200d0cdc <RAM_END+0x1ffd0cdc>
      e0:	00 00 a9 0c 	unimp  0xa90c
      e4:	72 65 67 00 	call  c9959ce4 <RAM_END+0xc9859ce4>
      e8:	03 43 00 00 	unknown
      ec:	00 9e 0d 00 	bn  7834ec <RAM_END+0x6834ec>
      f0:	00 00 52 03 	unimp  0x5203
      f4:	45 00 00 01 	call  140000f8 <RAM_END+0x13f000f8>
      f8:	05 09 76 61 	sethi  %hi(0x25d98400), %g2
      fc:	6c 00 03 46 	call  b0000e14 <RAM_END+0xaff00e14>
     100:	00 00 00 69 	unimp  0x69
     104:	00 0e 04 00 	unimp  0xe0400
     108:	00 01 0b 0f 	unimp  0x10b0f
     10c:	00 00 00 69 	unimp  0x69
     110:	10 00 00 00 	unknown
     114:	57 03 32 01 	call  5c0cc918 <RAM_END+0x5bfcc918>
     118:	03 00 00 01 	sethi  %hi(0x400), %g1
     11c:	4a 0b 00 00 	call  282c011c <RAM_END+0x281c011c>
     120:	00 48 03 32 	unknown
     124:	00 00 00 a9 	unimp  0xa9
     128:	0c 72 65 67 	unknown
     12c:	00 03 32 00 	unimp  0x33200
     130:	00 00 9e 0c 	unimp  0x9e0c
     134:	76 61 6c 00 	call  d985b134 <RAM_END+0xd975b134>
     138:	03 32 00 00 	sethi  %hi(0xc8000000), %g1
     13c:	00 69 0d 00 	unknown
     140:	00 00 52 03 	unimp  0x5203
     144:	34 00 00 01 	unknown
     148:	05 00 10 00 	sethi  %hi(0x400000), %g2
     14c:	00 00 aa 02 	unimp  0xaa02
     150:	2f 01 03 00 	sethi  %hi(0x40c0000), %l7
     154:	00 01 6e 0b 	unimp  0x16e0b
     158:	00 00 00 d6 	unimp  0xd6
     15c:	02 2f 00 00 	unknown
     160:	00 82 09 74 	bn  82730 <ISR_STACK_SIZE+0x7e730>
     164:	6d 70 00 02 	call  b5c0016c <RAM_END+0xb5b0016c>
     168:	31 00 00 00 	sethi  %hi(0), %i0
     16c:	69 00 11 01 	call  a4004570 <RAM_END+0xa3f04570>
     170:	00 00 03 0b 	unimp  0x30b
     174:	01 26 01 00 	sethi  %hi(0x98040000), %g0
     178:	00 12 98 00 	unimp  0x129800
     17c:	00 12 f8 00 	unimp  0x12f800
     180:	00 00 00 00 	unimp  0
     184:	00 02 a4 12 	unimp  0x2a412
     188:	69 72 71 00 	call  a5c9c588 <RAM_END+0xa5b9c588>
     18c:	01 26 00 00 	sethi  %hi(0x98000000), %g0
     190:	00 89 01 68 	bn  240730 <RAM_END+0x140730>
     194:	13 74 69 00 	unknown
     198:	01 29 00 00 	sethi  %hi(0xa4000000), %g0
     19c:	00 69 01 5a 	unknown
     1a0:	14 00 00 00 	unknown
     1a4:	26 01 2a 00 	unknown
     1a8:	00 00 89 00 	unimp  0x8900
     1ac:	00 00 20 15 	unimp  0x2015
     1b0:	00 00 00 ab 	unimp  0xab
     1b4:	00 00 12 bc 	unimp  0x12bc
     1b8:	00 00 12 c0 	unimp  0x12c0
     1bc:	01 2e 00 00 	sethi  %hi(0xb8000000), %g0
     1c0:	01 d6 16 00 	cbn  5859c0 <RAM_END+0x4859c0>
     1c4:	00 12 bc 00 	unimp  0x12bc00
     1c8:	00 12 c0 17 	unimp  0x12c017
     1cc:	00 00 00 bb 	unimp  0xbb
     1d0:	00 00 00 3e 	unimp  0x3e
     1d4:	00 00 15 00 	unimp  0x1500
     1d8:	00 00 c7 00 	unimp  0xc700
     1dc:	00 12 c0 00 	unimp  0x12c000
     1e0:	00 12 cc 01 	unimp  0x12cc01
     1e4:	2c 00 00 02 	unknown
     1e8:	19 18 00 00 	sethi  %hi(0x60000000), %o4
     1ec:	00 e3 00 00 	unknown
     1f0:	00 51 19 00 	unknown
     1f4:	00 00 d8 80 	unimp  0xd880
     1f8:	80 80 80 7b 	unknown
     1fc:	16 00 00 12 	unknown
     200:	c0 00 00 12 	ld  [ %g0 + %l2 ], %g0
     204:	cc 17 00 00 	lduh  [ %i4 ], %g6
     208:	00 ee 00 00 	unknown
     20c:	00 68 17 00 	unknown
     210:	00 00 f9 00 	unimp  0xf900
     214:	00 00 80 00 	unimp  0x8000
     218:	00 15 00 00 	unimp  0x150000
     21c:	00 ab 00 00 	bn  ffac021c <RAM_END+0xff9c021c>
     220:	12 cc 00 00 	unknown
     224:	12 d0 01 2f 	unknown
     228:	00 00 02 40 	unimp  0x240
     22c:	16 00 00 12 	unknown
     230:	cc 00 00 12 	ld  [ %g0 + %l2 ], %g6
     234:	d0 17 00 00 	lduh  [ %i4 ], %o0
     238:	00 bb 00 00 	bn  ffec0238 <RAM_END+0xffdc0238>
     23c:	00 93 00 00 	bn  4c023c <RAM_END+0x3c023c>
     240:	15 00 00 00 	sethi  %hi(0), %o2
     244:	ab 00 00 12 	taddcc  %g0, %l2, %l5
     248:	e0 00 00 12 	ld  [ %g0 + %l2 ], %l0
     24c:	e4 01 32 00 	ld  [ %g4 + -3584 ], %l2
     250:	00 02 67 16 	unimp  0x26716
     254:	00 00 12 e0 	unimp  0x12e0
     258:	00 00 12 e4 	unimp  0x12e4
     25c:	17 00 00 00 	sethi  %hi(0), %o3
     260:	bb 00 00 00 	taddcc  %g0, %g0, %i5
     264:	a6 00 00 1a 	add  %g0, %i2, %l3
     268:	00 00 01 10 	unimp  0x110
     26c:	00 00 12 e8 	unimp  0x12e8
     270:	00 00 12 f0 	unimp  0x12f0
     274:	01 30 1b 00 	sethi  %hi(0xc06c0000), %g0
     278:	00 01 33 00 	unimp  0x13300
     27c:	18 00 00 01 	unknown
     280:	28 00 00 00 	unknown
     284:	b9 19 00 00 	tsubcctv  %g4, %g0, %i4
     288:	01 1d 80 80 	sethi  %hi(0x76020000), %g0
     28c:	80 80 7b 16 	addcc  %g1, -1258, %g0
     290:	00 00 12 e8 	unimp  0x12e8
     294:	00 00 12 f0 	unimp  0x12f0
     298:	17 00 00 01 	sethi  %hi(0x400), %o3
     29c:	3e 00 00 00 	unknown
     2a0:	d2 00 00 00 	ld  [ %g0 ], %o1
     2a4:	1c 01 00 00 	unknown
     2a8:	00 b6 01 36 	bn  ffd80780 <RAM_END+0xffc80780>
     2ac:	01 00 00 00 	nop 
     2b0:	89 00 00 12 	taddcc  %g0, %l2, %g4
     2b4:	f8 00 00 13 	ld  [ %g0 + %l3 ], %i4
     2b8:	d0 00 00 00 	ld  [ %g0 ], %o0
     2bc:	ea 00 00 04 	ld  [ %g0 + %g4 ], %l5
     2c0:	f6 09 63 70 	ldub  [ %g5 + 0x370 ], %i3
     2c4:	75 00 01 38 	call  d40007a4 <RAM_END+0xd3f007a4>
     2c8:	00 00 04 f6 	unimp  0x4f6
     2cc:	0d 00 00 00 	sethi  %hi(0), %g6
     2d0:	d1 01 39 00 	ld  [ %g4 + -1792 ], %f8
     2d4:	00 00 74 1d 	unimp  0x741d
     2d8:	69 00 01 57 	call  a4000834 <RAM_END+0xa3f00834>
     2dc:	00 00 00 89 	unimp  0x89
     2e0:	00 1d 6a 00 	unimp  0x1d6a00
     2e4:	01 57 00 00 	unknown
     2e8:	00 89 00 15 	bn  24033c <RAM_END+0x14033c>
     2ec:	00 00 00 ab 	unimp  0xab
     2f0:	00 00 12 fc 	unimp  0x12fc
     2f4:	00 00 13 00 	unimp  0x1300
     2f8:	01 38 00 00 	sethi  %hi(0xe0000000), %g0
     2fc:	03 0e 16 00 	sethi  %hi(0x38580000), %g1
     300:	00 12 fc 00 	unimp  0x12fc00
     304:	00 13 00 1e 	unimp  0x13001e
     308:	00 00 00 bb 	unimp  0xbb
     30c:	00 00 15 00 	unimp  0x1500
     310:	00 00 ab 00 	unimp  0xab00
     314:	00 13 00 00 	unimp  0x130000
     318:	00 13 04 01 	unimp  0x130401
     31c:	3a 00 00 03 	unknown
     320:	35 16 00 00 	sethi  %hi(0x58000000), %i2
     324:	13 00 00 00 	sethi  %hi(0), %o1
     328:	13 04 17 00 	sethi  %hi(0x105c0000), %o1
     32c:	00 00 bb 00 	unimp  0xbb00
     330:	00 01 0a 00 	unimp  0x10a00
     334:	00 15 00 00 	unimp  0x150000
     338:	01 4a 00 00 	unknown
     33c:	13 1c 00 00 	sethi  %hi(0x70000000), %o1
     340:	13 38 01 3d 	sethi  %hi(0xe004f400), %o1
     344:	00 00 03 5e 	unimp  0x35e
     348:	1b 00 00 01 	sethi  %hi(0x400), %o5
     34c:	57 00 16 00 	call  5c005b4c <RAM_END+0x5bf05b4c>
     350:	00 13 1c 00 	unimp  0x131c00
     354:	00 13 38 1e 	unimp  0x13381e
     358:	00 00 01 62 	unimp  0x162
     35c:	00 00 15 00 	unimp  0x1500
     360:	00 00 ab 00 	unimp  0xab00
     364:	00 13 70 00 	unimp  0x137000
     368:	00 13 74 01 	unimp  0x137401
     36c:	48 00 00 03 	call  20000378 <RAM_END+0x1ff00378>
     370:	85 16 00 00 	taddcctv  %i0, %g0, %g2
     374:	13 70 00 00 	unknown
     378:	13 74 17 00 	unknown
     37c:	00 00 bb 00 	unimp  0xbb00
     380:	00 01 1d 00 	unimp  0x11d00
     384:	00 15 00 00 	unimp  0x150000
     388:	00 c7 00 00 	unknown
     38c:	13 74 00 00 	unknown
     390:	13 80 01 46 	fbe  8a8 <.debug_info+0x8a8>
     394:	00 00 03 c8 	unimp  0x3c8
     398:	18 00 00 00 	unknown
     39c:	e3 00 00 01 	ld  [ %g0 + %g1 ], %f17
     3a0:	30 19 00 00 	unknown
     3a4:	00 d8 80 80 	unknown
     3a8:	80 80 7b 16 	addcc  %g1, -1258, %g0
     3ac:	00 00 13 74 	unimp  0x1374
     3b0:	00 00 13 80 	unimp  0x1380
     3b4:	17 00 00 00 	sethi  %hi(0), %o3
     3b8:	ee 00 00 01 	ld  [ %g0 + %g1 ], %l7
     3bc:	47 17 00 00 	call  1c5c03bc <RAM_END+0x1c4c03bc>
     3c0:	00 f9 00 00 	unknown
     3c4:	01 5f 00 00 	unknown
     3c8:	15 00 00 00 	sethi  %hi(0), %o2
     3cc:	ab 00 00 13 	taddcc  %g0, %l3, %l5
     3d0:	8c 00 00 13 	add  %g0, %l3, %g6
     3d4:	90 01 4e 00 	unknown
     3d8:	00 03 ef 16 	unimp  0x3ef16
     3dc:	00 00 13 8c 	unimp  0x138c
     3e0:	00 00 13 90 	unimp  0x1390
     3e4:	17 00 00 00 	sethi  %hi(0), %o3
     3e8:	bb 00 00 01 	taddcc  %g0, %g1, %i5
     3ec:	72 00 00 1f 	call  c8000468 <RAM_END+0xc7f00468>
     3f0:	00 00 01 10 	unimp  0x110
     3f4:	00 00 13 90 	unimp  0x1390
     3f8:	00 00 00 00 	unimp  0
     3fc:	01 4c 00 00 	unknown
     400:	04 2c 20 00 	unknown
     404:	00 01 33 27 	unimp  0x13327
     408:	10 18 00 00 	unknown
     40c:	01 28 00 00 	sethi  %hi(0xa0000000), %g0
     410:	01 85 19 00 	fbn  146810 <RAM_END+0x46810>
     414:	00 01 1d 80 	unimp  0x11d80
     418:	80 80 80 7b 	unknown
     41c:	21 00 00 00 	sethi  %hi(0), %l0
     420:	18 17 00 00 	unknown
     424:	01 3e 00 00 	sethi  %hi(0xf8000000), %g0
     428:	01 9e 00 00 	fbn  780428 <RAM_END+0x680428>
     42c:	15 00 00 00 	sethi  %hi(0), %o2
     430:	ab 00 00 13 	taddcc  %g0, %l3, %l5
     434:	a4 00 00 13 	add  %g0, %l3, %l2
     438:	a8 01 54 00 	unknown
     43c:	00 04 53 16 	unimp  0x45316
     440:	00 00 13 a4 	unimp  0x13a4
     444:	00 00 13 a8 	unimp  0x13a8
     448:	17 00 00 00 	sethi  %hi(0), %o3
     44c:	bb 00 00 01 	taddcc  %g0, %g1, %i5
     450:	b6 00 00 1f 	add  %g0, %i7, %i3
     454:	00 00 01 10 	unimp  0x110
     458:	00 00 13 a8 	unimp  0x13a8
     45c:	00 00 00 30 	unimp  0x30
     460:	01 52 00 00 	unknown
     464:	04 8f 1b 00 	ble  3c7064 <RAM_END+0x2c7064>
     468:	00 01 33 03 	unimp  0x13303
     46c:	18 00 00 01 	unknown
     470:	28 00 00 01 	unknown
     474:	c9 19 00 00 	ldd  [ %g4 ], %f4
     478:	01 1d 80 80 	sethi  %hi(0x76020000), %g0
     47c:	80 80 7b 21 	addcc  %g1, -1247, %g0
     480:	00 00 00 48 	unimp  0x48
     484:	17 00 00 01 	sethi  %hi(0x400), %o3
     488:	3e 00 00 01 	unknown
     48c:	e2 00 00 15 	ld  [ %g0 + %l5 ], %l1
     490:	00 00 00 ab 	unimp  0xab
     494:	00 00 13 b8 	unimp  0x13b8
     498:	00 00 13 bc 	unimp  0x13bc
     49c:	01 60 00 00 	unknown
     4a0:	04 b6 16 00 	ble  ffd85ca0 <RAM_END+0xffc85ca0>
     4a4:	00 13 b8 00 	unimp  0x13b800
     4a8:	00 13 bc 17 	unimp  0x13bc17
     4ac:	00 00 00 bb 	unimp  0xbb
     4b0:	00 00 01 fa 	unimp  0x1fa
     4b4:	00 00 1a 00 	unimp  0x1a00
     4b8:	00 00 c7 00 	unimp  0xc700
     4bc:	00 13 bc 00 	unimp  0x13bc00
     4c0:	00 13 c4 01 	unimp  0x13c401
     4c4:	5e 18 00 00 	call  786004c4 <RAM_END+0x785004c4>
     4c8:	00 e3 00 00 	unknown
     4cc:	02 0d 19 00 	unknown
     4d0:	00 00 d8 80 	unimp  0xd880
     4d4:	80 80 80 7b 	unknown
     4d8:	16 00 00 13 	unknown
     4dc:	bc 00 00 13 	add  %g0, %l3, %fp
     4e0:	c4 17 00 00 	lduh  [ %i4 ], %g2
     4e4:	00 ee 00 00 	unknown
     4e8:	02 24 17 00 	unknown
     4ec:	00 00 f9 00 	unimp  0xf900
     4f0:	00 02 3c 00 	unimp  0x23c00
     4f4:	00 00 22 00 	unimp  0x2200
     4f8:	00 00 89 23 	unimp  0x8923
     4fc:	00 00 00 89 	unimp  0x89
     500:	00 00 05 0b 	unimp  0x50b
     504:	24 00 00 00 	unknown
     508:	74 03 00 0d 	call  d00c053c <RAM_END+0xcffc053c>
     50c:	00 00 00 ca 	unimp  0xca
     510:	01 22 00 00 	sethi  %hi(0x88000000), %g0
     514:	05 16 22 00 	sethi  %hi(0x58880000), %g2
     518:	00 04 fb 25 	unimp  0x4fb25
     51c:	00 00 00 86 	unimp  0x86
     520:	01 24 00 00 	sethi  %hi(0x90000000), %g0
     524:	00 89 05 03 	bn  241930 <RAM_END+0x141930>
     528:	00 00 1e a8 	unimp  0x1ea8
     52c:	00 00 00 00 	unimp  0
     530:	48 00 02 00 	call  20000d30 <RAM_END+0x1ff00d30>
     534:	00 01 d8 04 	unimp  0x1d804
     538:	01 00 00 00 	nop 
     53c:	0f 01 00 00 	sethi  %hi(0x4000000), %g7
     540:	01 61 00 00 	unknown
     544:	13 d0 00 00 	cb0  400544 <RAM_END+0x300544>
     548:	13 d0 00 00 	cb0  400548 <RAM_END+0x300548>
     54c:	01 75 02 04 	unknown
     550:	07 00 00 00 	sethi  %hi(0), %g3
     554:	79 02 02 07 	call  e4080d70 <RAM_END+0xe3f80d70>
     558:	00 00 00 73 	unimp  0x73
     55c:	02 01 08 00 	unknown
     560:	00 00 65 03 	unimp  0x6503
     564:	04 05 69 6e 	unknown
     568:	74 00 02 02 	call  d0000d70 <RAM_END+0xcff00d70>
     56c:	05 00 00 01 	sethi  %hi(0x400), %g2
     570:	08 02 01 06 	unknown
     574:	00 00 00 6e 	unimp  0x6e
     578:	00 00 00 09 	unimp  0x9
     57c:	a7 00 02 00 	unknown
     580:	00 02 00 04 	unimp  0x20004
     584:	01 00 00 00 	nop 
     588:	0f 01 00 00 	sethi  %hi(0x4000000), %g7
     58c:	01 f7 00 00 	cbn  ffdc058c <RAM_END+0xffcc058c>
     590:	13 d0 00 00 	cb0  400590 <RAM_END+0x300590>
     594:	16 7c 00 00 	unknown
     598:	01 92 02 00 	fbn  480d98 <RAM_END+0x380d98>
     59c:	00 01 1e 05 	unimp  0x11e05
     5a0:	20 00 00 00 	unknown
     5a4:	2c 03 04 07 	unknown
     5a8:	00 00 00 79 	unimp  0x79
     5ac:	03 02 07 00 	sethi  %hi(0x81c0000), %g1
     5b0:	00 00 73 02 	unimp  0x7302
     5b4:	00 00 03 17 	unimp  0x317
     5b8:	05 22 00 00 	sethi  %hi(0x88000000), %g2
     5bc:	00 45 03 01 	unknown
     5c0:	08 00 00 00 	unknown
     5c4:	65 04 04 05 	call  941015d8 <RAM_END+0x940015d8>
     5c8:	69 6e 74 00 	call  a5b9d5c8 <RAM_END+0xa5a9d5c8>
     5cc:	03 02 05 00 	sethi  %hi(0x8140000), %g1
     5d0:	00 01 08 03 	unimp  0x10803
     5d4:	01 06 00 00 	sethi  %hi(0x18000000), %g0
     5d8:	00 6e 02 00 	unknown
     5dc:	00 00 00 05 	unimp  0x5
     5e0:	2a 00 00 00 	unknown
     5e4:	2c 05 00 00 	unknown
     5e8:	03 56 04 06 	unknown
     5ec:	1f 00 00 00 	sethi  %hi(0), %o7
     5f0:	91 06 00 00 	taddcc  %i0, %g0, %o0
     5f4:	01 b4 00 06 	fbn  ffd0060c <RAM_END+0xffc0060c>
     5f8:	00 00 01 c7 	unimp  0x1c7
     5fc:	01 06 00 00 	sethi  %hi(0x18000000), %g0
     600:	02 c2 02 06 	unknown
     604:	00 00 03 1f 	unimp  0x31f
     608:	04 00 02 00 	unknown
     60c:	00 03 8d 03 	unimp  0x38d03
     610:	37 00 00 00 	sethi  %hi(0), %i3
     614:	9c 07 01 00 	unknown
     618:	00 00 a8 08 	unimp  0xa808
     61c:	00 00 00 4c 	unimp  0x4c
     620:	00 02 00 00 	unimp  0x20000
     624:	01 9a 03 3c 	fbn  681314 <RAM_END+0x581314>
     628:	00 00 00 b3 	unimp  0xb3
     62c:	07 01 00 00 	sethi  %hi(0x4000000), %g3
     630:	00 ce 08 00 	unknown
     634:	00 00 2c 08 	unimp  0x2c08
     638:	00 00 00 ce 	unimp  0xce
     63c:	08 00 00 00 	unknown
     640:	ce 08 00 00 	ldub  [ %g0 ], %g7
     644:	00 ce 00 09 	unknown
     648:	04 02 00 00 	unknown
     64c:	02 a1 03 3f 	be  ff841348 <RAM_END+0xff741348>
     650:	00 00 00 db 	unimp  0xdb
     654:	07 01 00 00 	sethi  %hi(0x4000000), %g3
     658:	00 fb 08 00 	unknown
     65c:	00 00 2c 08 	unimp  0x2c08
     660:	00 00 00 ce 	unimp  0xce
     664:	08 00 00 00 	unknown
     668:	ce 08 00 00 	ldub  [ %g0 ], %g7
     66c:	00 ce 08 00 	unknown
     670:	00 00 ce 00 	unimp  0xce00
     674:	0a 00 00 00 	unknown
     678:	07 02 4c 00 	sethi  %hi(0x9300000), %g3
     67c:	00 00 4c 03 	unimp  0x4c03
     680:	00 00 01 17 	unimp  0x117
     684:	0b 74 6d 70 	unknown
     688:	00 02 4e 00 	unimp  0x24e00
     68c:	00 00 21 00 	unimp  0x2100
     690:	0c 00 00 02 	unknown
     694:	d8 04 58 01 	ld  [ %l1 + %g1 ], %o4
     698:	03 00 00 01 	sethi  %hi(0x400), %g1
     69c:	51 0d 00 00 	call  4434069c <RAM_END+0x4424069c>
     6a0:	00 48 04 58 	unknown
     6a4:	00 00 00 ce 	unimp  0xce
     6a8:	0e 72 65 67 	unknown
     6ac:	00 04 58 00 	unimp  0x45800
     6b0:	00 00 61 0e 	unimp  0x610e
     6b4:	76 61 6c 00 	call  d985b6b4 <RAM_END+0xd975b6b4>
     6b8:	04 58 00 00 	unknown
     6bc:	00 3a 0f 00 	unimp  0xfffa0f00
     6c0:	00 00 52 04 	unimp  0x5204
     6c4:	5a 00 00 01 	call  680006c8 <RAM_END+0x67f006c8>
     6c8:	51 00 10 04 	call  440046d8 <RAM_END+0x43f046d8>
     6cc:	00 00 01 57 	unimp  0x157
     6d0:	11 00 00 00 	sethi  %hi(0), %o0
     6d4:	21 12 00 00 	sethi  %hi(0x48000000), %l0
     6d8:	02 68 04 61 	unknown
     6dc:	01 00 00 00 	nop 
     6e0:	3a 03 00 00 	unknown
     6e4:	01 8f 0d 00 	fbn  3c3ae4 <RAM_END+0x2c3ae4>
     6e8:	00 00 48 04 	unimp  0x4804
     6ec:	61 00 00 00 	call  840006ec <RAM_END+0x83f006ec>
     6f0:	ce 0e 72 65 	ldub  [ %i1 + -3483 ], %g7
     6f4:	67 00 04 61 	call  9c001878 <RAM_END+0x9bf01878>
     6f8:	00 00 00 61 	unimp  0x61
     6fc:	0f 00 00 00 	sethi  %hi(0), %g7
     700:	52 04 63 00 	call  48119300 <RAM_END+0x48019300>
     704:	00 01 51 00 	unimp  0x15100
     708:	13 00 00 02 	sethi  %hi(0x800), %o1
     70c:	bd 01 fb 01 	taddcc  %g7, -1279, %fp
     710:	03 12 00 00 	sethi  %hi(0x48000000), %g1
     714:	02 2d 03 53 	unknown
     718:	01 00 00 00 	nop 
     71c:	4c 03 00 00 	call  300c071c <RAM_END+0x2ffc071c>
     720:	01 b3 0e 78 	fbn  ffcc4100 <RAM_END+0xffbc4100>
     724:	00 03 53 00 	unimp  0x35300
     728:	00 01 b3 00 	unimp  0x1b300
     72c:	14 00 00 00 	unknown
     730:	4c 15 00 00 	call  30540730 <RAM_END+0x30440730>
     734:	02 88 03 81 	be  201538 <RAM_END+0x101538>
     738:	00 00 00 4c 	unimp  0x4c
     73c:	03 16 01 00 	sethi  %hi(0x58040000), %g1
     740:	00 02 36 01 	unimp  0x23601
     744:	22 01 00 00 	unknown
     748:	00 4c 01 00 	unknown
     74c:	00 01 e0 0e 	unimp  0x1e00e
     750:	78 00 01 22 	call  e0000bd8 <RAM_END+0xdff00bd8>
     754:	00 00 01 b3 	unimp  0x1b3
     758:	00 0c 00 00 	unimp  0xc0000
     75c:	01 dd 02 21 	cbn  740fe0 <RAM_END+0x640fe0>
     760:	01 03 00 00 	sethi  %hi(0xc000000), %g0
     764:	01 f9 0b 74 	cbn  ffe43534 <RAM_END+0xffd43534>
     768:	6d 70 00 02 	call  b5c00770 <RAM_END+0xb5b00770>
     76c:	23 00 00 00 	sethi  %hi(0), %l1
     770:	21 00 0c 00 	sethi  %hi(0x300000), %l0
     774:	00 02 5c 02 	unimp  0x25c02
     778:	3f 01 03 00 	sethi  %hi(0x40c0000), %i7
     77c:	00 02 12 0b 	unimp  0x2120b
     780:	74 6d 70 00 	call  d1b5c780 <RAM_END+0xd1a5c780>
     784:	02 41 00 00 	unknown
     788:	00 21 00 17 	unimp  0xffe10017
     78c:	6c 6c 00 01 	call  b1b00790 <RAM_END+0xb1a00790>
     790:	01 04 01 00 	sethi  %hi(0x10040000), %g0
     794:	00 00 21 03 	unimp  0x2103
     798:	00 00 02 3c 	unimp  0x23c
     79c:	18 00 00 00 	unknown
     7a0:	52 01 01 04 	call  48040bb0 <RAM_END+0x47f40bb0>
     7a4:	00 00 02 3c 	unimp  0x23c
     7a8:	19 72 65 74 	unknown
     7ac:	00 01 01 06 	unimp  0x10106
     7b0:	00 00 00 21 	unimp  0x21
     7b4:	00 10 04 00 	unimp  0x100400
     7b8:	00 00 21 17 	unimp  0x2117
     7bc:	73 63 00 01 	call  cd8c07c0 <RAM_END+0xcd7c07c0>
     7c0:	01 17 01 00 	sethi  %hi(0x5c040000), %g0
     7c4:	00 00 21 03 	unimp  0x2103
     7c8:	00 00 02 78 	unimp  0x278
     7cc:	18 00 00 00 	unknown
     7d0:	52 01 01 17 	call  48040c2c <RAM_END+0x47f40c2c>
     7d4:	00 00 02 3c 	unimp  0x23c
     7d8:	18 00 00 01 	unknown
     7dc:	a8 01 01 17 	unknown
     7e0:	00 00 00 21 	unimp  0x21
     7e4:	19 72 65 74 	unknown
     7e8:	00 01 01 1a 	unimp  0x1011a
     7ec:	00 00 00 21 	unimp  0x21
     7f0:	00 1a 00 00 	unimp  0x1a0000
     7f4:	01 c4 00 00 	cbn  1007f4 <RAM_END+0x7f4>
     7f8:	13 d0 00 00 	cb0  4007f8 <RAM_END+0x3007f8>
     7fc:	13 e8 02 7e 	cb0  ffa011f4 <RAM_END+0xff9011f4>
     800:	00 00 00 03 	unimp  0x3
     804:	0b 1b 00 00 	sethi  %hi(0x6c000000), %g5
     808:	01 d6 01 58 	cbn  580d68 <RAM_END+0x480d68>
     80c:	1c 00 00 01 	unknown
     810:	98 00 00 13 	add  %g0, %l3, %o4
     814:	d0 00 00 13 	ld  [ %g0 + %l3 ], %o0
     818:	e0 01 24 1b 	ld  [ %g4 + 0x41b ], %l0
     81c:	00 00 01 a9 	unimp  0x1a9
     820:	01 58 1d 00 	unknown
     824:	00 00 fb 00 	unimp  0xfb00
     828:	00 13 d0 00 	unimp  0x13d000
     82c:	00 13 d4 03 	unimp  0x13d403
     830:	78 00 00 02 	call  e0000838 <RAM_END+0xdff00838>
     834:	d0 1e 00 00 	ldd  [ %i0 ], %o0
     838:	13 d0 00 00 	cb0  400838 <RAM_END+0x300838>
     83c:	13 d4 1f 00 	cb0  50843c <RAM_END+0x40843c>
     840:	00 01 0b 00 	unimp  0x10b00
     844:	00 02 4f 00 	unimp  0x24f00
     848:	00 20 00 00 	unimp  0xffe00000
     84c:	01 17 00 00 	sethi  %hi(0x5c000000), %g0
     850:	13 d8 00 00 	cb0  600850 <RAM_END+0x500850>
     854:	00 60 03 75 	unknown
     858:	1b 00 00 01 	sethi  %hi(0x400), %o5
     85c:	3a 01 58 21 	unknown
     860:	00 00 01 2f 	unimp  0x12f
     864:	00 00 02 62 	unimp  0x262
     868:	22 00 00 01 	unknown
     86c:	24 80 80 80 	ble,a   20a6c <ISR_STACK_SIZE+0x1ca6c>
     870:	80 7a 23 00 	sdiv  %o0, 0x300, %g0
     874:	00 00 78 1f 	unimp  0x781f
     878:	00 00 01 45 	unimp  0x145
     87c:	00 00 02 79 	unimp  0x279
     880:	00 00 00 00 	unimp  0
     884:	24 01 00 00 	unknown
     888:	02 91 01 28 	be  440d28 <RAM_END+0x340d28>
     88c:	00 00 00 4c 	unimp  0x4c
     890:	00 00 13 e8 	unimp  0x13e8
     894:	00 00 14 00 	unimp  0x1400
     898:	02 7e 00 00 	unknown
     89c:	00 03 90 20 	unimp  0x39020
     8a0:	00 00 01 b8 	unimp  0x1b8
     8a4:	00 00 13 e8 	unimp  0x13e8
     8a8:	00 00 00 90 	unimp  0x90
     8ac:	01 2a 25 00 	sethi  %hi(0xa8940000), %g0
     8b0:	00 01 5c 00 	unimp  0x15c00
     8b4:	00 13 ec 00 	unimp  0x13ec00
     8b8:	00 00 a8 03 	unimp  0xa803
     8bc:	9c 00 00 03 	add  %g0, %g3, %sp
     8c0:	6b 21 00 00 	call  ac8408c0 <RAM_END+0xac7408c0>
     8c4:	01 78 00 00 	unknown
     8c8:	02 99 22 00 	be  6490c8 <RAM_END+0x5490c8>
     8cc:	00 01 6d 80 	unimp  0x16d80
     8d0:	80 80 80 7a 	unknown
     8d4:	23 00 00 00 	sethi  %hi(0), %l1
     8d8:	c0 1f 00 00 	ldd  [ %i4 ], %g0
     8dc:	01 83 00 00 	fbn  c08dc <ISR_STACK_SIZE+0xbc8dc>
     8e0:	02 b2 00 00 	be  ffc808e0 <RAM_END+0xffb808e0>
     8e4:	1c 00 00 00 	unknown
     8e8:	fb 00 00 13 	ld  [ %g0 + %l3 ], %f29
     8ec:	e8 00 00 13 	ld  [ %g0 + %l3 ], %l4
     8f0:	ec 03 9f 1e 	ld  [ %sp + %fp ], %l6
     8f4:	00 00 13 e8 	unimp  0x13e8
     8f8:	00 00 13 ec 	unimp  0x13ec
     8fc:	1f 00 00 01 	sethi  %hi(0x400), %o7
     900:	0b 00 00 02 	sethi  %hi(0x800), %g5
     904:	d4 00 00 00 	ld  [ %g0 ], %o2
     908:	00 26 01 00 	unimp  0xffe60100
     90c:	00 03 d9 01 	unimp  0x3d901
     910:	2d 01 00 00 	sethi  %hi(0x4000000), %l6
     914:	00 4c 00 00 	unknown
     918:	14 00 00 00 	unknown
     91c:	14 58 02 7e 	unknown
     920:	00 00 00 04 	unimp  0x4
     924:	d6 27 73 74 	st  %o3, [ %i5 + -3212 ]
     928:	72 00 01 2d 	call  c8000ddc <RAM_END+0xc7f00ddc>
     92c:	00 00 04 d6 	unimp  0x4d6
     930:	00 00 02 e7 	unimp  0x2e7
     934:	25 00 00 01 	sethi  %hi(0x400), %l2
     938:	c4 00 00 14 	ld  [ %g0 + %l4 ], %g2
     93c:	18 00 00 00 	unknown
     940:	d8 01 30 00 	ld  [ %g4 + -4096 ], %o4
     944:	00 04 46 28 	unimp  0x44628
     948:	00 00 01 d6 	unimp  0x1d6
     94c:	20 00 00 01 	unknown
     950:	98 00 00 14 	add  %g0, %l4, %o4
     954:	18 00 00 00 	unknown
     958:	f0 01 24 28 	ld  [ %g4 + 0x428 ], %i0
     95c:	00 00 01 a9 	unimp  0x1a9
     960:	25 00 00 01 	sethi  %hi(0x400), %l2
     964:	17 00 00 14 	sethi  %hi(0x5000), %o3
     968:	1c 00 00 01 	unknown
     96c:	08 03 75 00 	unknown
     970:	00 04 21 28 	unimp  0x42128
     974:	00 00 01 3a 	unimp  0x13a
     978:	21 00 00 01 	sethi  %hi(0x400), %l0
     97c:	2f 00 00 03 	sethi  %hi(0xc00), %l7
     980:	05 21 00 00 	sethi  %hi(0x84000000), %g2
     984:	01 24 00 00 	sethi  %hi(0x90000000), %g0
     988:	03 1c 23 00 	sethi  %hi(0x708c0000), %g1
     98c:	00 01 20 1f 	unimp  0x1201f
     990:	00 00 01 45 	unimp  0x145
     994:	00 00 03 34 	unimp  0x334
     998:	00 00 1c 00 	unimp  0x1c00
     99c:	00 00 fb 00 	unimp  0xfb00
     9a0:	00 14 18 00 	unimp  0x141800
     9a4:	00 14 1c 03 	unimp  0x141c03
     9a8:	78 1e 00 00 	call  e07809a8 <RAM_END+0xe06809a8>
     9ac:	14 18 00 00 	unknown
     9b0:	14 1c 1f 00 	unknown
     9b4:	00 01 0b 00 	unimp  0x10b00
     9b8:	00 03 54 00 	unimp  0x35400
     9bc:	00 00 00 1c 	unimp  0x1c
     9c0:	00 00 01 c4 	unimp  0x1c4
     9c4:	00 00 14 3c 	unimp  0x143c
     9c8:	00 00 14 50 	unimp  0x1450
     9cc:	01 31 29 00 	sethi  %hi(0xc4a40000), %g0
     9d0:	00 01 d6 0a 	unimp  0x1d60a
     9d4:	1c 00 00 01 	unknown
     9d8:	98 00 00 14 	add  %g0, %l4, %o4
     9dc:	3c 00 00 14 	unknown
     9e0:	50 01 24 29 	call  40049a84 <RAM_END+0x3ff49a84>
     9e4:	00 00 01 a9 	unimp  0x1a9
     9e8:	0a 1d 00 00 	unknown
     9ec:	00 fb 00 00 	unknown
     9f0:	14 3c 00 00 	unknown
     9f4:	14 40 03 78 	unknown
     9f8:	00 00 04 97 	unimp  0x497
     9fc:	1e 00 00 14 	unknown
     a00:	3c 00 00 14 	unknown
     a04:	40 1f 00 00 	call  7c0a04 <RAM_END+0x6c0a04>
     a08:	01 0b 00 00 	sethi  %hi(0x2c000000), %g0
     a0c:	03 67 00 00 	unknown
     a10:	1c 00 00 01 	unknown
     a14:	17 00 00 14 	sethi  %hi(0x5000), %o3
     a18:	40 00 00 14 	call  a68 <.debug_info+0xa68>
     a1c:	50 03 75 29 	call  400ddec0 <RAM_END+0x3ffddec0>
     a20:	00 00 01 3a 	unimp  0x13a
     a24:	0a 21 00 00 	unknown
     a28:	01 2f 00 00 	sethi  %hi(0xbc000000), %g0
     a2c:	03 7a 22 00 	unknown
     a30:	00 01 24 80 	unimp  0x12480
     a34:	80 80 80 7a 	unknown
     a38:	1e 00 00 14 	unknown
     a3c:	40 00 00 14 	call  a8c <.debug_info+0xa8c>
     a40:	50 1f 00 00 	call  407c0a40 <RAM_END+0x406c0a40>
     a44:	01 45 00 00 	unknown
     a48:	03 91 00 00 	fbne  440a48 <RAM_END+0x340a48>
     a4c:	00 00 00 10 	unimp  0x10
     a50:	04 00 00 04 	unknown
     a54:	dc 14 00 00 	lduh  [ %l0 ], %sp
     a58:	00 5a 2a 01 	unknown
     a5c:	00 00 03 79 	unimp  0x379
     a60:	01 35 01 00 	sethi  %hi(0xd4040000), %g0
     a64:	00 14 58 00 	unimp  0x145800
     a68:	00 14 f8 00 	unimp  0x14f800
     a6c:	00 03 b1 00 	unimp  0x3b100
     a70:	00 05 93 27 	unimp  0x59327
     a74:	69 00 01 35 	call  a4000f48 <RAM_END+0xa3f00f48>
     a78:	00 00 01 b3 	unimp  0x1b3
     a7c:	00 00 03 d1 	unimp  0x3d1
     a80:	20 00 00 01 	unknown
     a84:	c4 00 00 14 	ld  [ %g0 + %l4 ], %g2
     a88:	80 00 00 01 	add  %g0, %g1, %g0
     a8c:	38 01 39 21 	unknown
     a90:	00 00 01 d6 	unimp  0x1d6
     a94:	00 00 03 ef 	unimp  0x3ef
     a98:	20 00 00 01 	unknown
     a9c:	98 00 00 14 	add  %g0, %l4, %o4
     aa0:	80 00 00 01 	add  %g0, %g1, %g0
     aa4:	80 01 24 21 	add  %g4, 0x421, %g0
     aa8:	00 00 01 a9 	unimp  0x1a9
     aac:	00 00 04 21 	unimp  0x421
     ab0:	25 00 00 00 	sethi  %hi(0), %l2
     ab4:	fb 00 00 14 	ld  [ %g0 + %l4 ], %f29
     ab8:	80 00 00 01 	add  %g0, %g1, %g0
     abc:	c8 03 78 00 	ld  [ %o5 + -2048 ], %g4
     ac0:	00 05 5a 23 	unimp  0x55a23
     ac4:	00 00 01 e0 	unimp  0x1e0
     ac8:	1f 00 00 01 	sethi  %hi(0x400), %o7
     acc:	0b 00 00 04 	sethi  %hi(0x1000), %g5
     ad0:	53 00 00 20 	call  4c000b50 <RAM_END+0x4bf00b50>
     ad4:	00 00 01 17 	unimp  0x117
     ad8:	00 00 14 88 	unimp  0x1488
     adc:	00 00 01 f8 	unimp  0x1f8
     ae0:	03 75 28 00 	unknown
     ae4:	00 01 3a 21 	unimp  0x13a21
     ae8:	00 00 01 2f 	unimp  0x12f
     aec:	00 00 04 71 	unimp  0x471
     af0:	21 00 00 01 	sethi  %hi(0x400), %l0
     af4:	24 00 00 04 	unknown
     af8:	97 23 00 00 	mulscc  %o4, %g0, %o3
     afc:	02 20 1f 00 	unknown
     b00:	00 01 45 00 	unimp  0x14500
     b04:	00 04 bf 00 	unimp  0x4bf00
     b08:	00 00 00 00 	unimp  0
     b0c:	2b 01 00 00 	sethi  %hi(0x4000000), %l5
     b10:	02 ef 01 3c 	unknown
     b14:	00 00 00 21 	unimp  0x21
     b18:	00 00 14 f8 	unimp  0x14f8
     b1c:	00 00 15 00 	unimp  0x1500
     b20:	02 7e 00 2b 	unknown
     b24:	01 00 00 03 	sethi  %hi(0xc00), %g0
     b28:	6e 01 53 00 	call  b8055728 <RAM_END+0xb7f55728>
     b2c:	00 00 21 00 	unimp  0x2100
     b30:	00 15 00 00 	unimp  0x150000
     b34:	00 15 08 02 	unimp  0x150802
     b38:	7e 00 2c 01 	call  f800bb3c <RAM_END+0xf7f0bb3c>
     b3c:	00 00 01 e8 	unimp  0x1e8
     b40:	01 6c 01 00 	unknown
     b44:	00 15 08 00 	unimp  0x150800
     b48:	00 15 14 02 	unimp  0x151402
     b4c:	7e 00 00 00 	call  f8000b4c <RAM_END+0xf7f00b4c>
     b50:	05 e7 2d 00 	cb12  ff9cbf50 <RAM_END+0xff8cbf50>
     b54:	00 03 0f 01 	unimp  0x30f01
     b58:	6c 00 00 05 	call  b0000b6c <RAM_END+0xaff00b6c>
     b5c:	e7 01 58 00 	ld  [ %g5 ], %f19
     b60:	10 04 00 00 	unknown
     b64:	00 d0 2a 01 	unknown
     b68:	00 00 03 41 	unimp  0x341
     b6c:	01 71 01 00 	unknown
     b70:	00 15 14 00 	unimp  0x151400
     b74:	00 15 64 00 	unimp  0x156400
     b78:	00 04 f7 00 	unimp  0x4f700
     b7c:	00 06 50 2d 	unimp  0x6502d
     b80:	00 00 03 69 	unimp  0x369
     b84:	01 72 00 00 	unknown
     b88:	00 2c 01 68 	unimp  0xffec0168
     b8c:	2e 00 00 02 	unknown
     b90:	3e 01 72 00 	unknown
     b94:	00 00 ce 00 	unimp  0xce00
     b98:	00 05 17 2e 	unimp  0x5172e
     b9c:	00 00 02 99 	unimp  0x299
     ba0:	01 73 00 00 	unknown
     ba4:	00 ce 00 00 	unknown
     ba8:	05 40 2e 00 	unknown
     bac:	00 01 be 01 	unimp  0x1be01
     bb0:	73 00 00 00 	call  cc000bb0 <RAM_END+0xcbf00bb0>
     bb4:	ce 00 00 05 	ld  [ %g0 + %g5 ], %g7
     bb8:	69 2e 00 00 	call  a4b80bb8 <RAM_END+0xa4a80bb8>
     bbc:	03 28 01 74 	sethi  %hi(0xa005d000), %g1
     bc0:	00 00 00 ce 	unimp  0xce
     bc4:	00 00 05 92 	unimp  0x592
     bc8:	00 2c 01 00 	unimp  0xffec0100
     bcc:	00 03 31 01 	unimp  0x33101
     bd0:	80 01 00 00 	add  %g4, %g0, %g0
     bd4:	15 64 00 00 	unknown
     bd8:	15 70 02 7e 	unknown
     bdc:	00 00 00 06 	unimp  0x6
     be0:	76 2d 00 00 	call  d8b40be0 <RAM_END+0xd8a40be0>
     be4:	03 0f 01 80 	sethi  %hi(0x3c060000), %g1
     be8:	00 00 06 76 	unimp  0x676
     bec:	01 58 00 10 	unknown
     bf0:	04 00 00 00 	unknown
     bf4:	a8 2a 01 00 	unknown
     bf8:	00 02 46 01 	unimp  0x24601
     bfc:	85 01 00 00 	taddcc  %g4, %g0, %g2
     c00:	15 70 00 00 	unknown
     c04:	15 bc 00 00 	fbue  fff00c04 <RAM_END+0xffe00c04>
     c08:	05 bb 00 00 	fblg  ffec0c08 <RAM_END+0xffdc0c08>
     c0c:	06 d0 2d 00 	unknown
     c10:	00 02 b5 01 	unimp  0x2b501
     c14:	86 00 00 00 	add  %g0, %g0, %g3
     c18:	2c 01 68 2e 	unknown
     c1c:	00 00 02 3e 	unimp  0x23e
     c20:	01 86 00 00 	fbn  180c20 <RAM_END+0x80c20>
     c24:	00 ce 00 00 	unknown
     c28:	05 db 2e 00 	cb12  6cc428 <RAM_END+0x5cc428>
     c2c:	00 01 be 01 	unimp  0x1be01
     c30:	87 00 00 00 	taddcc  %g0, %g0, %g3
     c34:	ce 00 00 06 	ld  [ %g0 + %g6 ], %g7
     c38:	04 2e 00 00 	unknown
     c3c:	03 28 01 87 	sethi  %hi(0xa0061c00), %g1
     c40:	00 00 00 ce 	unimp  0xce
     c44:	00 00 06 2d 	unimp  0x62d
     c48:	00 2c 01 00 	unimp  0xffec0100
     c4c:	00 03 de 01 	unimp  0x3de01
     c50:	93 01 00 00 	taddcc  %g4, %g0, %o1
     c54:	15 bc 00 00 	fbue  fff00c54 <RAM_END+0xffe00c54>
     c58:	15 c8 02 7e 	cb03  201650 <RAM_END+0x101650>
     c5c:	00 00 00 06 	unimp  0x6
     c60:	f6 2d 00 00 	stb  %i3, [ %l4 ]
     c64:	03 0f 01 93 	sethi  %hi(0x3c064c00), %g1
     c68:	00 00 06 f6 	unimp  0x6f6
     c6c:	01 58 00 10 	unknown
     c70:	04 00 00 00 	unknown
     c74:	91 2c 01 00 	unknown
     c78:	00 03 ac 01 	unimp  0x3ac01
     c7c:	98 01 00 00 	add  %g4, %g0, %o4
     c80:	15 c8 00 00 	cb03  200c80 <RAM_END+0x100c80>
     c84:	15 e0 02 7e 	cb03  ff80167c <RAM_END+0xff70167c>
     c88:	00 00 00 07 	unimp  0x7
     c8c:	3f 2f 6e 00 	sethi  %hi(0xbdb80000), %i7
     c90:	01 98 00 00 	fbn  600c90 <RAM_END+0x500c90>
     c94:	00 2c 01 58 	unimp  0xffec0158
     c98:	1c 00 00 01 	unknown
     c9c:	e0 00 00 15 	ld  [ %g0 + %l5 ], %l0
     ca0:	c8 00 00 15 	ld  [ %g0 + %l5 ], %g4
     ca4:	d8 01 b6 1e 	ld  [ %g6 + -2530 ], %o4
     ca8:	00 00 15 c8 	unimp  0x15c8
     cac:	00 00 15 d8 	unimp  0x15d8
     cb0:	30 00 00 01 	unknown
     cb4:	ed 00 00 00 	ld  [ %g0 ], %f22
     cb8:	2c 01 00 00 	unknown
     cbc:	03 7e 01 bc 	unknown
     cc0:	01 00 00 15 	sethi  %hi(0x5400), %g0
     cc4:	e0 00 00 15 	ld  [ %g0 + %l5 ], %l0
     cc8:	f8 02 7e 00 	ld  [ %o1 + -512 ], %i4
     ccc:	00 00 07 82 	unimp  0x782
     cd0:	2f 6e 00 01 	unknown
     cd4:	bc 00 00 00 	add  %g0, %g0, %fp
     cd8:	2c 01 58 1c 	unknown
     cdc:	00 00 01 f9 	unimp  0x1f9
     ce0:	00 00 15 e0 	unimp  0x15e0
     ce4:	00 00 15 f0 	unimp  0x15f0
     ce8:	01 cb 1e 00 	cbn  2c84e8 <RAM_END+0x1c84e8>
     cec:	00 15 e0 00 	unimp  0x15e000
     cf0:	00 15 f0 30 	unimp  0x15f030
     cf4:	00 00 02 06 	unimp  0x206
     cf8:	00 00 00 2a 	unimp  0x2a
     cfc:	01 00 00 03 	sethi  %hi(0xc00), %g0
     d00:	ba 01 d4 01 	unknown
     d04:	00 00 15 f8 	unimp  0x15f8
     d08:	00 00 16 38 	unimp  0x1638
     d0c:	00 00 06 56 	unimp  0x656
     d10:	00 00 07 b9 	unimp  0x7b9
     d14:	2f 69 72 71 	unknown
     d18:	00 01 d4 00 	unimp  0x1d400
     d1c:	00 00 2c 01 	unimp  0x2c01
     d20:	68 31 00 00 	call  a0c40d20 <RAM_END+0xa0b40d20>
     d24:	02 cb 00 00 	unknown
     d28:	07 c9 01 05 	cb13  24113c <RAM_END+0x14113c>
     d2c:	03 00 00 1d 	sethi  %hi(0x7400), %g1
     d30:	80 00 32 00 	add  %g0, -3584, %g0
     d34:	00 00 5a 00 	unimp  0x5a00
     d38:	00 07 c9 33 	unimp  0x7c933
     d3c:	00 00 00 2c 	unimp  0x2c
     d40:	14 00 14 00 	unknown
     d44:	00 07 b9 34 	unimp  0x7b934
     d48:	01 00 00 01 	sethi  %hi(0x400), %g0
     d4c:	d2 01 01 2f 	ld  [ %g4 + %o7 ], %o1
     d50:	01 00 00 00 	nop 
     d54:	21 00 00 16 	sethi  %hi(0x5800), %l0
     d58:	38 00 00 16 	unknown
     d5c:	50 02 7e 00 	call  400a055c <RAM_END+0x3ffa055c>
     d60:	00 00 08 84 	unimp  0x884
     d64:	35 00 00 00 	sethi  %hi(0), %i2
     d68:	52 01 01 2f 	call  48041224 <RAM_END+0x47f41224>
     d6c:	00 00 02 3c 	unimp  0x23c
     d70:	00 00 06 76 	unimp  0x676
     d74:	36 00 00 01 	unknown
     d78:	ae 01 01 2f 	unknown
     d7c:	00 00 00 21 	unimp  0x21
     d80:	01 59 37 76 	unknown
     d84:	61 6c 00 01 	call  85b00d88 <RAM_END+0x85a00d88>
     d88:	01 32 00 00 	sethi  %hi(0xc8000000), %g0
     d8c:	00 21 01 58 	unimp  0xffe10158
     d90:	38 00 00 02 	unknown
     d94:	ae 01 01 32 	unknown
     d98:	00 00 00 21 	unimp  0x21
     d9c:	39 00 00 02 	sethi  %hi(0x800), %i4
     da0:	12 00 00 16 	unknown
     da4:	3c 00 00 16 	unknown
     da8:	40 01 01 34 	call  41278 <ISR_STACK_SIZE+0x3d278>
     dac:	00 00 08 54 	unimp  0x854
     db0:	21 00 00 02 	sethi  %hi(0x800), %l0
     db4:	23 00 00 06 	sethi  %hi(0x1800), %l1
     db8:	89 1e 00 00 	tsubcctv  %i0, %g0, %g4
     dbc:	16 3c 00 00 	unknown
     dc0:	16 40 1f 00 	unknown
     dc4:	00 02 2f 00 	unimp  0x22f00
     dc8:	00 06 a7 00 	unimp  0x6a700
     dcc:	00 3a 00 00 	unimp  0xfffa0000
     dd0:	02 42 00 00 	unknown
     dd4:	16 44 00 00 	unknown
     dd8:	16 48 01 01 	unknown
     ddc:	36 1b 00 00 	unknown
     de0:	02 5f 01 58 	unknown
     de4:	1b 00 00 02 	sethi  %hi(0x800), %o5
     de8:	53 01 51 1e 	call  4c055260 <RAM_END+0x4bf55260>
     dec:	00 00 16 44 	unimp  0x1644
     df0:	00 00 16 48 	unimp  0x1648
     df4:	3b 00 00 02 	sethi  %hi(0x800), %i5
     df8:	6b 00 00 00 	call  ac000df8 <RAM_END+0xabf00df8>
     dfc:	00 3c 01 00 	unimp  0xfffc0100
     e00:	00 03 cf 01 	unimp  0x3cf01
     e04:	01 45 01 00 	unknown
     e08:	00 16 50 00 	unimp  0x165000
     e0c:	00 16 6c 02 	unimp  0x166c02
     e10:	7e 00 00 00 	call  f8000e10 <RAM_END+0xf7f00e10>
     e14:	09 11 36 00 	sethi  %hi(0x44d80000), %g4
     e18:	00 03 d4 01 	unimp  0x3d401
     e1c:	01 45 00 00 	unknown
     e20:	02 3c 01 58 	unknown
     e24:	38 00 00 02 	unknown
     e28:	ae 01 01 48 	unknown
     e2c:	00 00 00 21 	unimp  0x21
     e30:	39 00 00 02 	sethi  %hi(0x800), %i4
     e34:	12 00 00 16 	unknown
     e38:	50 00 00 16 	call  40000e90 <RAM_END+0x3ff00e90>
     e3c:	54 01 01 4a 	call  50041364 <RAM_END+0x4ff41364>
     e40:	00 00 08 e4 	unimp  0x8e4
     e44:	28 00 00 02 	unknown
     e48:	23 1e 00 00 	sethi  %hi(0x78000000), %l1
     e4c:	16 50 00 00 	unknown
     e50:	16 54 1f 00 	unknown
     e54:	00 02 2f 00 	unimp  0x22f00
     e58:	00 06 ba 00 	unimp  0x6ba00
     e5c:	00 3a 00 00 	unimp  0xfffa0000
     e60:	02 42 00 00 	unknown
     e64:	16 60 00 00 	unknown
     e68:	16 64 01 01 	unknown
     e6c:	4c 29 00 00 	call  30a40e6c <RAM_END+0x30940e6c>
     e70:	02 5f 01 28 	unknown
     e74:	00 00 02 53 	unimp  0x253
     e78:	1e 00 00 16 	unknown
     e7c:	60 00 00 16 	call  80000ed4 <RAM_END+0x7ff00ed4>
     e80:	64 3b 00 00 	call  90ec0e80 <RAM_END+0x90dc0e80>
     e84:	02 6b 00 00 	unknown
     e88:	00 00 3c 01 	unimp  0x3c01
     e8c:	00 00 02 fa 	unimp  0x2fa
     e90:	01 01 73 01 	sethi  %hi(0x5cc0400), %g0
     e94:	00 00 16 6c 	unimp  0x166c
     e98:	00 00 16 74 	unimp  0x1674
     e9c:	02 7e 00 00 	unknown
     ea0:	00 09 39 36 	unimp  0x93936
     ea4:	00 00 03 d4 	unimp  0x3d4
     ea8:	01 01 73 00 	sethi  %hi(0x5cc0000), %g0
     eac:	00 02 3c 01 	unimp  0x23c01
     eb0:	58 00 3d 01 	call  600102b4 <RAM_END+0x5ff102b4>
     eb4:	00 00 02 e9 	unimp  0x2e9
     eb8:	01 01 7a 00 	sethi  %hi(0x5e80000), %g0
     ebc:	00 16 74 00 	unimp  0x167400
     ec0:	00 16 7c 02 	unimp  0x167c02
     ec4:	7e 00 3e 00 	call  f80106c4 <RAM_END+0xf7f106c4>
     ec8:	00 02 78 01 	unimp  0x27801
     ecc:	6a 00 00 05 	call  a8000ee0 <RAM_END+0xa7f00ee0>
     ed0:	e7 01 01 3e 	ld  [ %g4 + %fp ], %f19
     ed4:	00 00 03 9b 	unimp  0x39b
     ed8:	01 7e 00 00 	unknown
     edc:	06 76 01 01 	unknown
     ee0:	3e 00 00 03 	unknown
     ee4:	06 01 91 00 	unknown
     ee8:	00 06 f6 01 	unimp  0x6f601
     eec:	01 3f 00 00 	sethi  %hi(0xfc000000), %g0
     ef0:	02 78 01 6a 	unknown
     ef4:	00 00 05 e7 	unimp  0x5e7
     ef8:	01 05 03 00 	sethi  %hi(0x140c0000), %g0
     efc:	00 1e ac 3f 	unimp  0x1eac3f
     f00:	00 00 03 9b 	unimp  0x39b
     f04:	01 7e 00 00 	unknown
     f08:	06 76 01 05 	unknown
     f0c:	03 00 00 1e 	sethi  %hi(0x7800), %g1
     f10:	b0 3f 00 00 	xnor  %i4, %g0, %i0
     f14:	03 06 01 91 	sethi  %hi(0x18064400), %g1
     f18:	00 00 06 f6 	unimp  0x6f6
     f1c:	01 05 03 00 	sethi  %hi(0x140c0000), %g0
     f20:	00 1e b4 00 	unimp  0x1eb400
     f24:	00 00 06 2b 	unimp  0x62b
     f28:	00 02 00 00 	unimp  0x20000
     f2c:	05 74 04 01 	unknown
     f30:	00 00 00 0f 	unimp  0xf
     f34:	01 00 00 04 	sethi  %hi(0x1000), %g0
     f38:	27 00 00 17 	sethi  %hi(0x5c00), %l3
     f3c:	e0 00 00 1c 	ld  [ %g0 + %i4 ], %l0
     f40:	64 00 00 03 	call  90000f4c <RAM_END+0x8ff00f4c>
     f44:	c0 02 00 00 	ld  [ %o0 ], %g0
     f48:	04 0b 05 28 	unknown
     f4c:	00 00 00 2c 	unimp  0x2c
     f50:	03 04 00 00 	sethi  %hi(0x10000000), %g1
     f54:	03 ee 02 00 	cb123  ffb81754 <RAM_END+0xffa81754>
     f58:	00 04 12 05 	unimp  0x41205
     f5c:	66 00 00 00 	call  98000f5c <RAM_END+0x97f00f5c>
     f60:	21 02 00 00 	sethi  %hi(0x8000000), %l0
     f64:	01 1e 06 20 	sethi  %hi(0x78188000), %g0
     f68:	00 00 00 48 	unimp  0x48
     f6c:	04 04 07 00 	unknown
     f70:	00 00 79 04 	unimp  0x7904
     f74:	02 07 00 00 	unknown
     f78:	00 73 02 00 	unknown
     f7c:	00 03 17 06 	unimp  0x31706
     f80:	22 00 00 00 	unknown
     f84:	61 04 01 08 	call  841013a4 <RAM_END+0x840013a4>
     f88:	00 00 00 65 	unimp  0x65
     f8c:	05 04 05 69 	sethi  %hi(0x1015a400), %g2
     f90:	6e 74 00 04 	call  b9d00fa0 <RAM_END+0xb9c00fa0>
     f94:	02 05 00 00 	unknown
     f98:	01 08 04 01 	sethi  %hi(0x20100400), %g0
     f9c:	06 00 00 00 	unknown
     fa0:	6e 02 00 00 	call  b8080fa0 <RAM_END+0xb7f80fa0>
     fa4:	00 00 06 2a 	unimp  0x62a
     fa8:	00 00 00 48 	unimp  0x48
     fac:	06 00 00 03 	unknown
     fb0:	56 04 07 1f 	call  58102c2c <RAM_END+0x58002c2c>
     fb4:	00 00 00 ad 	unimp  0xad
     fb8:	07 00 00 01 	sethi  %hi(0x400), %g3
     fbc:	b4 00 07 00 	unknown
     fc0:	00 01 c7 01 	unimp  0x1c701
     fc4:	07 00 00 02 	sethi  %hi(0x800), %g3
     fc8:	c2 02 07 00 	ld  [ %o0 ], %g1
     fcc:	00 03 1f 04 	unimp  0x31f04
     fd0:	00 08 04 09 	unimp  0x80409
     fd4:	00 00 00 07 	unimp  0x7
     fd8:	03 4c 00 00 	unknown
     fdc:	00 68 03 00 	unknown
     fe0:	00 00 cb 0a 	unimp  0xcb0a
     fe4:	74 6d 70 00 	call  d1b5cfe4 <RAM_END+0xd1a5cfe4>
     fe8:	03 4e 00 00 	unknown
     fec:	00 3d 00 0b 	unimp  0xfffd000b
     ff0:	00 00 02 d8 	unimp  0x2d8
     ff4:	02 58 01 03 	unknown
     ff8:	00 00 01 05 	unimp  0x105
     ffc:	0c 00 00 00 	unknown
    1000:	48 02 58 00 	call  20097000 <RAM_END+0x1ff97000>
    1004:	00 00 ad 0d 	unimp  0xad0d
    1008:	72 65 67 00 	call  c995ac08 <RAM_END+0xc985ac08>
    100c:	02 58 00 00 	unknown
    1010:	00 7d 0d 76 	unknown
    1014:	61 6c 00 02 	call  85b0101c <RAM_END+0x85a0101c>
    1018:	58 00 00 00 	call  60001018 <RAM_END+0x5ff01018>
    101c:	56 0e 00 00 	call  5838101c <RAM_END+0x5828101c>
    1020:	00 52 02 5a 	unknown
    1024:	00 00 01 05 	unimp  0x105
    1028:	00 0f 04 00 	unimp  0xf0400
    102c:	00 01 0b 10 	unimp  0x10b10
    1030:	00 00 00 3d 	unimp  0x3d
    1034:	11 00 00 02 	sethi  %hi(0x800), %o0
    1038:	2d 04 53 01 	sethi  %hi(0x114c0400), %l6
    103c:	00 00 00 68 	unimp  0x68
    1040:	03 00 00 01 	sethi  %hi(0x400), %g1
    1044:	2b 0d 78 00 	sethi  %hi(0x35e00000), %l5
    1048:	04 53 00 00 	unknown
    104c:	01 2b 00 12 	sethi  %hi(0xac004800), %g0
    1050:	00 00 00 68 	unimp  0x68
    1054:	13 01 00 00 	sethi  %hi(0x4000000), %o1
    1058:	00 d1 01 20 	unknown
    105c:	01 00 00 00 	nop 
    1060:	68 00 00 17 	call  a00010bc <RAM_END+0x9ff010bc>
    1064:	e0 00 00 18 	ld  [ %g0 + %i0 ], %l0
    1068:	00 00 00 06 	unimp  0x6
    106c:	cd 00 00 01 	ld  [ %g0 + %g1 ], %f6
    1070:	68 14 72 65 	call  a051da04 <RAM_END+0xa041da04>
    1074:	74 00 01 20 	call  d00014f4 <RAM_END+0xcff014f4>
    1078:	00 00 01 68 	unimp  0x168
    107c:	00 00 06 ed 	unimp  0x6ed
    1080:	15 74 00 01 	unknown
    1084:	22 00 00 00 	unknown
    1088:	68 01 58 00 	call  a0057088 <RAM_END+0x9ff57088>
    108c:	0f 04 00 00 	sethi  %hi(0x10000000), %g7
    1090:	00 68 16 01 	unknown
    1094:	00 00 04 20 	unimp  0x420
    1098:	01 38 01 00 	sethi  %hi(0xe0040000), %g0
    109c:	00 01 a9 00 	unimp  0x1a900
    10a0:	00 18 00 00 	unimp  0x180000
    10a4:	00 18 24 02 	unimp  0x182402
    10a8:	7e 00 00 00 	call  f80010a8 <RAM_END+0xf7f010a8>
    10ac:	01 a9 14 64 	fbn  ffa4623c <RAM_END+0xff94623c>
    10b0:	73 74 00 01 	call  cdd010b4 <RAM_END+0xcdc010b4>
    10b4:	38 00 00 01 	unknown
    10b8:	a9 00 00 07 	taddcc  %g0, %g7, %l4
    10bc:	00 14 73 72 	unimp  0x147372
    10c0:	63 00 01 38 	call  8c0015a0 <RAM_END+0x8bf015a0>
    10c4:	00 00 01 af 	unimp  0x1af
    10c8:	00 00 07 1e 	unimp  0x71e
    10cc:	00 0f 04 00 	unimp  0xf0400
    10d0:	00 00 76 0f 	unimp  0x760f
    10d4:	04 00 00 01 	unknown
    10d8:	b5 12 00 00 	taddcctv  %o0, %g0, %i2
    10dc:	00 76 13 01 	unknown
    10e0:	00 00 04 63 	unimp  0x463
    10e4:	01 63 01 00 	unknown
    10e8:	00 00 68 00 	unimp  0x6800
    10ec:	00 18 24 00 	unimp  0x182400
    10f0:	00 1b 88 00 	unimp  0x1b8800
    10f4:	00 07 49 00 	unimp  0x74900
    10f8:	00 05 46 14 	unimp  0x54614
    10fc:	66 6d 74 00 	call  99b5e0fc <RAM_END+0x99a5e0fc>
    1100:	01 63 00 00 	unknown
    1104:	01 af 00 00 	fbn  ffbc1104 <RAM_END+0xffac1104>
    1108:	07 69 17 18 	unknown
    110c:	74 6d 70 00 	call  d1b5d10c <RAM_END+0xd1a5d10c>
    1110:	01 65 00 00 	unknown
    1114:	01 a9 00 00 	fbn  ffa41114 <RAM_END+0xff941114>
    1118:	07 c9 18 76 	cb13  2472f0 <RAM_END+0x1472f0>
    111c:	61 6c 00 01 	call  85b01120 <RAM_END+0x85a01120>
    1120:	66 00 00 00 	call  98001120 <RAM_END+0x97f01120>
    1124:	68 00 00 08 	call  a0001144 <RAM_END+0x9ff01144>
    1128:	89 18 69 00 	tsubcctv  %g1, 0x900, %g4
    112c:	01 66 00 00 	unknown
    1130:	00 68 00 00 	unknown
    1134:	09 28 19 00 	sethi  %hi(0xa0640000), %g4
    1138:	00 00 26 01 	unimp  0x2601
    113c:	66 00 00 00 	call  9800113c <RAM_END+0x97f0113c>
    1140:	68 00 00 09 	call  a0001164 <RAM_END+0x9ff01164>
    1144:	52 15 62 75 	call  48559b18 <RAM_END+0x48459b18>
    1148:	66 00 01 67 	call  980016e4 <RAM_END+0x97f016e4>
    114c:	00 00 05 46 	unimp  0x546
    1150:	02 91 68 15 	be  45b1a4 <RAM_END+0x35b1a4>
    1154:	61 70 00 01 	call  85c01158 <RAM_END+0x85b01158>
    1158:	68 00 00 00 	call  a0001158 <RAM_END+0x9ff01158>
    115c:	32 02 91 7c 	unknown
    1160:	1a 00 00 04 	unknown
    1164:	05 01 71 1b 	sethi  %hi(0x5c46c00), %g2
    1168:	00 00 04 79 	unimp  0x479
    116c:	01 d0 00 00 	cbn  40116c <RAM_END+0x30116c>
    1170:	19 0c 1c 00 	sethi  %hi(0x30700000), %o4
    1174:	00 01 10 00 	unimp  0x11000
    1178:	00 18 28 00 	unimp  0x182800
    117c:	00 02 48 01 	unimp  0x24801
    1180:	6d 00 00 02 	call  b4001188 <RAM_END+0xb3f01188>
    1184:	c4 1d 00 00 	ldd  [ %l4 ], %g2
    1188:	01 21 1e 00 	sethi  %hi(0x84780000), %g0
    118c:	00 00 af 00 	unimp  0xaf00
    1190:	00 18 a4 00 	unimp  0x18a400
    1194:	00 18 a8 04 	unimp  0x18a804
    1198:	78 00 00 02 	call  e00011a0 <RAM_END+0xdff011a0>
    119c:	8d 1f 00 00 	tsubcctv  %i4, %g0, %g6
    11a0:	18 a4 00 00 	bgu  ff9011a0 <RAM_END+0xff8011a0>
    11a4:	18 a8 20 00 	bgu  ffa091a4 <RAM_END+0xff9091a4>
    11a8:	00 00 bf 00 	unimp  0xbf00
    11ac:	00 09 b3 00 	unimp  0x9b300
    11b0:	00 21 00 00 	unimp  0xffe10000
    11b4:	00 cb 00 00 	unknown
    11b8:	18 28 00 00 	unknown
    11bc:	02 68 04 75 	unknown
    11c0:	1d 00 00 00 	sethi  %hi(0), %sp
    11c4:	ee 22 00 00 	st  %l7, [ %o0 ]
    11c8:	00 e3 00 00 	unknown
    11cc:	09 c6 22 00 	cb1  1899cc <RAM_END+0x899cc>
    11d0:	00 00 d8 00 	unimp  0xd800
    11d4:	00 09 dd 23 	unimp  0x9dd23
    11d8:	00 00 02 88 	unimp  0x288
    11dc:	20 00 00 00 	unknown
    11e0:	f9 00 00 0a 	ld  [ %g0 + %o2 ], %f28
    11e4:	05 00 00 00 	sethi  %hi(0), %g2
    11e8:	1c 00 00 01 	unknown
    11ec:	10 00 00 18 	unknown
    11f0:	64 00 00 02 	call  900011f8 <RAM_END+0x8ff011f8>
    11f4:	a8 01 8e 00 	unknown
    11f8:	00 03 42 22 	unimp  0x34222
    11fc:	00 00 01 21 	unimp  0x121
    1200:	00 00 0a 25 	unimp  0xa25
    1204:	1c 00 00 00 	unknown
    1208:	cb 00 00 18 	ld  [ %g0 + %i0 ], %f5
    120c:	64 00 00 02 	call  90001214 <RAM_END+0x8ff01214>
    1210:	c0 04 75 00 	ld  [ %l1 + -2816 ], %g0
    1214:	00 03 1e 22 	unimp  0x31e22
    1218:	00 00 00 ee 	unimp  0xee
    121c:	00 00 0a 3a 	unimp  0xa3a
    1220:	22 00 00 00 	unknown
    1224:	e3 00 00 0a 	ld  [ %g0 + %o2 ], %f17
    1228:	4f 22 00 00 	call  3c881228 <RAM_END+0x3c781228>
    122c:	00 d8 00 00 	unknown
    1230:	0a 66 23 00 	unknown
    1234:	00 02 d8 20 	unimp  0x2d820
    1238:	00 00 00 f9 	unimp  0xf9
    123c:	00 00 0a 7e 	unimp  0xa7e
    1240:	00 00 24 00 	unimp  0x2400
    1244:	00 00 af 00 	unimp  0xaf00
    1248:	00 1b 68 00 	unimp  0x1b6800
    124c:	00 1b 6c 04 	unimp  0x1b6c04
    1250:	78 1f 00 00 	call  e07c1250 <RAM_END+0xe06c1250>
    1254:	1b 68 00 00 	unknown
    1258:	1b 6c 20 00 	unknown
    125c:	00 00 bf 00 	unimp  0xbf00
    1260:	00 0a 9e 00 	unimp  0xa9e00
    1264:	00 00 1c 00 	unimp  0x1c00
    1268:	00 01 10 00 	unimp  0x11000
    126c:	00 18 68 00 	unimp  0x186800
    1270:	00 02 f0 01 	unimp  0x2f001
    1274:	82 00 00 03 	add  %g0, %g3, %g1
    1278:	c0 22 00 00 	clr  [ %o0 ]
    127c:	01 21 00 00 	sethi  %hi(0x84000000), %g0
    1280:	0a b1 1c 00 	bcs  ffc48280 <RAM_END+0xffb48280>
    1284:	00 00 cb 00 	unimp  0xcb00
    1288:	00 18 68 00 	unimp  0x186800
    128c:	00 03 08 04 	unimp  0x30804
    1290:	75 00 00 03 	call  d400129c <RAM_END+0xd3f0129c>
    1294:	9c 22 00 00 	sub  %o0, %g0, %sp
    1298:	00 ee 00 00 	unknown
    129c:	0a c6 22 00 	unknown
    12a0:	00 00 e3 00 	unimp  0xe300
    12a4:	00 0a db 22 	unimp  0xadb22
    12a8:	00 00 00 d8 	unimp  0xd8
    12ac:	00 00 0a f2 	unimp  0xaf2
    12b0:	23 00 00 03 	sethi  %hi(0xc00), %l1
    12b4:	20 20 00 00 	unknown
    12b8:	00 f9 00 00 	unknown
    12bc:	0b 0a 00 00 	sethi  %hi(0x28000000), %g5
    12c0:	24 00 00 00 	unknown
    12c4:	af 00 00 1b 	taddcc  %g0, %i3, %l7
    12c8:	4c 00 00 1b 	call  30001334 <RAM_END+0x2ff01334>
    12cc:	50 04 78 1f 	call  4011f348 <RAM_END+0x4001f348>
    12d0:	00 00 1b 4c 	unimp  0x1b4c
    12d4:	00 00 1b 50 	unimp  0x1b50
    12d8:	20 00 00 00 	unknown
    12dc:	bf 00 00 0b 	taddcc  %g0, %o3, %i7
    12e0:	2a 00 00 00 	unknown
    12e4:	1e 00 00 01 	unknown
    12e8:	10 00 00 18 	unknown
    12ec:	fc 00 00 19 	ld  [ %g0 + %i1 ], %fp
    12f0:	08 01 c8 00 	unknown
    12f4:	00 04 3e 22 	unimp  0x43e22
    12f8:	00 00 01 21 	unimp  0x121
    12fc:	00 00 0b 3d 	unimp  0xb3d
    1300:	1e 00 00 00 	unknown
    1304:	af 00 00 18 	taddcc  %g0, %i0, %l7
    1308:	fc 00 00 19 	ld  [ %g0 + %i1 ], %fp
    130c:	00 04 78 00 	unimp  0x47800
    1310:	00 04 03 1f 	unimp  0x4031f
    1314:	00 00 18 fc 	unimp  0x18fc
    1318:	00 00 19 00 	unimp  0x1900
    131c:	20 00 00 00 	unknown
    1320:	bf 00 00 0b 	taddcc  %g0, %o3, %i7
    1324:	50 00 00 21 	call  400013a8 <RAM_END+0x3ff013a8>
    1328:	00 00 00 cb 	unimp  0xcb
    132c:	00 00 19 00 	unimp  0x1900
    1330:	00 00 03 38 	unimp  0x338
    1334:	04 75 22 00 	unknown
    1338:	00 00 ee 00 	unimp  0xee00
    133c:	00 0b 63 22 	unimp  0xb6322
    1340:	00 00 00 e3 	unimp  0xe3
    1344:	00 00 0b 76 	unimp  0xb76
    1348:	22 00 00 00 	unknown
    134c:	d8 00 00 0b 	ld  [ %g0 + %o3 ], %o4
    1350:	8d 23 00 00 	mulscc  %o4, %g0, %g6
    1354:	03 50 20 00 	unknown
    1358:	00 00 f9 00 	unimp  0xf900
    135c:	00 0b a5 00 	unimp  0xba500
    1360:	00 00 1c 00 	unimp  0x1c00
    1364:	00 01 10 00 	unimp  0x11000
    1368:	00 19 8c 00 	unimp  0x198c00
    136c:	00 03 68 01 	unimp  0x36801
    1370:	cd 00 00 04 	ld  [ %g0 + %g4 ], %f6
    1374:	b4 1d 00 00 	xor  %l4, %g0, %i2
    1378:	01 21 1c 00 	sethi  %hi(0x84700000), %g0
    137c:	00 00 cb 00 	unimp  0xcb00
    1380:	00 19 90 00 	unimp  0x199000
    1384:	00 03 80 04 	unimp  0x38004
    1388:	75 00 00 04 	call  d4001398 <RAM_END+0xd3f01398>
    138c:	90 1d 00 00 	xor  %l4, %g0, %o0
    1390:	00 ee 22 00 	unknown
    1394:	00 00 e3 00 	unimp  0xe300
    1398:	00 0b c5 22 	unimp  0xbc522
    139c:	00 00 00 d8 	unimp  0xd8
    13a0:	00 00 0b dc 	unimp  0xbdc
    13a4:	23 00 00 03 	sethi  %hi(0xc00), %l1
    13a8:	98 20 00 00 	neg  %g0, %o4
    13ac:	00 f9 00 00 	unknown
    13b0:	0b f4 00 00 	cb23  ffd013b0 <RAM_END+0xffc013b0>
    13b4:	24 00 00 00 	unknown
    13b8:	af 00 00 19 	taddcc  %g0, %i1, %l7
    13bc:	8c 00 00 19 	add  %g0, %i1, %g6
    13c0:	90 04 78 1f 	add  %l1, -2017, %o0
    13c4:	00 00 19 8c 	unimp  0x198c
    13c8:	00 00 19 90 	unimp  0x1990
    13cc:	20 00 00 00 	unknown
    13d0:	bf 00 00 0c 	taddcc  %g0, %o4, %i7
    13d4:	14 00 00 00 	unknown
    13d8:	1e 00 00 01 	unknown
    13dc:	10 00 00 1a 	unknown
    13e0:	8c 00 00 1a 	add  %g0, %i2, %g6
    13e4:	98 01 86 00 	unknown
    13e8:	00 05 2e 22 	unimp  0x52e22
    13ec:	00 00 01 21 	unimp  0x121
    13f0:	00 00 0c 27 	unimp  0xc27
    13f4:	1e 00 00 00 	unknown
    13f8:	af 00 00 1a 	taddcc  %g0, %i2, %l7
    13fc:	8c 00 00 1a 	add  %g0, %i2, %g6
    1400:	90 04 78 00 	add  %l1, -2048, %o0
    1404:	00 04 f7 1f 	unimp  0x4f71f
    1408:	00 00 1a 8c 	unimp  0x1a8c
    140c:	00 00 1a 90 	unimp  0x1a90
    1410:	20 00 00 00 	unknown
    1414:	bf 00 00 0c 	taddcc  %g0, %o4, %i7
    1418:	3c 00 00 21 	unknown
    141c:	00 00 00 cb 	unimp  0xcb
    1420:	00 00 1a 90 	unimp  0x1a90
    1424:	00 00 03 b0 	unimp  0x3b0
    1428:	04 75 1d 00 	unknown
    142c:	00 00 ee 22 	unimp  0xee22
    1430:	00 00 00 e3 	unimp  0xe3
    1434:	00 00 0c 4f 	unimp  0xc4f
    1438:	22 00 00 00 	unknown
    143c:	d8 00 00 0c 	ld  [ %g0 + %o4 ], %o4
    1440:	66 23 00 00 	call  988c1440 <RAM_END+0x987c1440>
    1444:	03 c8 20 00 	cb123  209444 <RAM_END+0x109444>
    1448:	00 00 f9 00 	unimp  0xf900
    144c:	00 0c 7e 00 	unimp  0xc7e00
    1450:	00 00 1f 00 	unimp  0x1f00
    1454:	00 1a c0 00 	unimp  0x1ac000
    1458:	00 1a e4 18 	unimp  0x1ae418
    145c:	74 00 01 b7 	call  d0001b38 <RAM_END+0xcff01b38>
    1460:	00 00 00 76 	unimp  0x76
    1464:	00 00 0c 9e 	unimp  0xc9e
    1468:	00 00 25 00 	unimp  0x2500
    146c:	00 00 76 00 	unimp  0x7600
    1470:	00 05 56 26 	unimp  0x55626
    1474:	00 00 00 48 	unimp  0x48
    1478:	0f 00 16 01 	sethi  %hi(0x580400), %g7
    147c:	00 00 04 6a 	unimp  0x46a
    1480:	01 db 01 00 	cbn  6c1880 <RAM_END+0x5c1880>
    1484:	00 00 68 00 	unimp  0x6800
    1488:	00 1b 88 00 	unimp  0x1b8800
    148c:	00 1b e0 02 	unimp  0x1be002
    1490:	7e 00 00 00 	call  f8001490 <RAM_END+0xf7f01490>
    1494:	05 a8 27 00 	fblg  ffa0b094 <RAM_END+0xff90b094>
    1498:	00 04 74 01 	unimp  0x47401
    149c:	db 00 00 01 	ld  [ %g0 + %g1 ], %f13
    14a0:	af 00 00 0c 	taddcc  %g0, %o4, %l7
    14a4:	c8 27 00 00 	st  %g4, [ %i4 ]
    14a8:	04 1b 01 db 	unknown
    14ac:	00 00 01 af 	unimp  0x1af
    14b0:	00 00 0c f1 	unimp  0xcf1
    14b4:	1f 00 00 1b 	sethi  %hi(0x6c00), %o7
    14b8:	98 00 00 1b 	add  %g0, %i3, %o4
    14bc:	bc 18 64 00 	xor  %g1, 0x400, %fp
    14c0:	01 e1 00 00 	cbn  ff8414c0 <RAM_END+0xff7414c0>
    14c4:	00 68 00 00 	unknown
    14c8:	0d 25 00 00 	sethi  %hi(0x94000000), %g6
    14cc:	16 01 00 00 	unknown
    14d0:	04 5c 01 ea 	unknown
    14d4:	01 00 00 00 	nop 
    14d8:	68 00 00 1b 	call  a0001544 <RAM_END+0x9ff01544>
    14dc:	e0 00 00 1c 	ld  [ %g0 + %i4 ], %l0
    14e0:	64 02 7e 00 	call  900a0ce0 <RAM_END+0x8ffa0ce0>
    14e4:	00 00 06 23 	unimp  0x623
    14e8:	27 00 00 04 	sethi  %hi(0x1000), %l3
    14ec:	74 01 ea 00 	call  d007bcec <RAM_END+0xcff7bcec>
    14f0:	00 01 af 00 	unimp  0x1af00
    14f4:	00 0d 6e 27 	unimp  0xd6e27
    14f8:	00 00 04 1b 	unimp  0x41b
    14fc:	01 ea 00 00 	cbn  ffa814fc <RAM_END+0xff9814fc>
    1500:	01 af 00 00 	fbn  ffbc1500 <RAM_END+0xffac1500>
    1504:	0d 8c 19 00 	fbg  307904 <RAM_END+0x207904>
    1508:	00 04 73 01 	unimp  0x47301
    150c:	ec 00 00 06 	ld  [ %g0 + %g6 ], %l6
    1510:	23 00 00 0d 	sethi  %hi(0x3400), %l1
    1514:	aa 19 00 00 	xor  %g4, %g0, %l5
    1518:	04 1a 01 ed 	unknown
    151c:	00 00 06 23 	unimp  0x623
    1520:	00 00 0d e0 	unimp  0xde0
    1524:	23 00 00 03 	sethi  %hi(0xc00), %l1
    1528:	e0 19 00 00 	ldd  [ %g4 ], %l0
    152c:	04 00 01 f2 	unknown
    1530:	00 00 06 29 	unimp  0x629
    1534:	00 00 0e 21 	unimp  0xe21
    1538:	18 6c 00 01 	unknown
    153c:	f3 00 00 00 	ld  [ %g0 ], %f25
    1540:	3d 00 00 0e 	sethi  %hi(0x3800), %fp
    1544:	49 00 00 0f 	call  24001580 <RAM_END+0x23f01580>
    1548:	04 00 00 06 	unknown
    154c:	29 12 00 00 	sethi  %hi(0x48000000), %l4
    1550:	00 3d 00 00 	unimp  0xfffd0000
    1554:	00 02 53 00 	unimp  0x25300
    1558:	02 00 00 07 	unknown
    155c:	66 04 01 00 	call  9810195c <RAM_END+0x9800195c>
    1560:	00 00 0f 01 	unimp  0xf01
    1564:	00 00 04 89 	unimp  0x489
    1568:	00 00 1c 64 	unimp  0x1c64
    156c:	00 00 1d 64 	unimp  0x1d64
    1570:	00 00 06 82 	unimp  0x682
    1574:	02 00 00 01 	unknown
    1578:	1e 02 20 00 	unknown
    157c:	00 00 2c 03 	unimp  0x2c03
    1580:	04 07 00 00 	unknown
    1584:	00 79 03 02 	unknown
    1588:	07 00 00 00 	sethi  %hi(0), %g3
    158c:	73 03 01 08 	call  cc0c19ac <RAM_END+0xcbfc19ac>
    1590:	00 00 00 65 	unimp  0x65
    1594:	04 04 05 69 	unknown
    1598:	6e 74 00 03 	call  b9d015a4 <RAM_END+0xb9c015a4>
    159c:	02 05 00 00 	unknown
    15a0:	01 08 03 01 	sethi  %hi(0x200c0400), %g0
    15a4:	06 00 00 00 	unknown
    15a8:	6e 02 00 00 	call  b80815a8 <RAM_END+0xb7f815a8>
    15ac:	00 00 02 2a 	unimp  0x22a
    15b0:	00 00 00 2c 	unimp  0x2c
    15b4:	05 04 06 00 	sethi  %hi(0x10180000), %g2
    15b8:	00 04 83 01 	unimp  0x48301
    15bc:	2b 01 00 00 	sethi  %hi(0x4000000), %l5
    15c0:	00 80 03 00 	bn  21c0 <_end+0x300>
    15c4:	00 00 80 07 	unimp  0x8007
    15c8:	70 74 72 00 	call  c1d1ddc8 <RAM_END+0xc1c1ddc8>
    15cc:	01 2b 00 00 	sethi  %hi(0xac000000), %g0
    15d0:	00 80 00 08 	bn  15f0 <.debug_info+0x15f0>
    15d4:	04 00 00 00 	unknown
    15d8:	4f 09 01 00 	call  3c2419d8 <RAM_END+0x3c1419d8>
    15dc:	00 04 d6 01 	unimp  0x4d601
    15e0:	3e 01 0a 01 	unknown
    15e4:	00 00 04 7e 	unimp  0x47e
    15e8:	01 53 01 01 	unknown
    15ec:	00 00 00 a9 	unimp  0xa9
    15f0:	0b 00 00 00 	sethi  %hi(0), %g5
    15f4:	d6 01 53 00 	ld  [ %g5 ], %o3
    15f8:	00 00 41 00 	unimp  0x4100
    15fc:	0c 01 00 00 	unknown
    1600:	04 fc 01 30 	unknown
    1604:	01 00 00 00 	nop 
    1608:	61 00 00 1c 	call  84001678 <RAM_END+0x83f01678>
    160c:	64 00 00 1c 	call  9000167c <RAM_END+0x8ff0167c>
    1610:	b4 02 7e 00 	add  %o1, -512, %i2
    1614:	00 00 01 14 	unimp  0x114
    1618:	0d 73 7a 00 	unknown
    161c:	01 30 00 00 	sethi  %hi(0xc0000000), %g0
    1620:	00 56 00 00 	unknown
    1624:	0e 5c 0e 72 	unknown
    1628:	70 00 01 32 	call  c0001af0 <RAM_END+0xbff01af0>
    162c:	00 00 00 80 	unimp  0x80
    1630:	00 00 0e 7a 	unimp  0xe7a
    1634:	0f 00 00 00 	sethi  %hi(0), %g7
    1638:	63 00 00 1c 	call  8c0016a8 <RAM_END+0x8bf016a8>
    163c:	7c 00 00 03 	call  f0001648 <RAM_END+0xeff01648>
    1640:	f8 01 36 00 	ld  [ %g4 + -2560 ], %i4
    1644:	00 00 fe 10 	unimp  0xfe10
    1648:	00 00 00 74 	unimp  0x74
    164c:	00 00 0e 9c 	unimp  0xe9c
    1650:	00 11 00 00 	unimp  0x110000
    1654:	00 63 00 00 	unknown
    1658:	1c 8c 00 00 	bpos  301658 <RAM_END+0x201658>
    165c:	1c 9c 01 34 	bpos  701b2c <RAM_END+0x601b2c>
    1660:	12 00 00 00 	unknown
    1664:	74 00 00 13 	call  d00016b0 <RAM_END+0xcff016b0>
    1668:	01 00 00 04 	sethi  %hi(0x1000), %g0
    166c:	db 01 3a 01 	ld  [ %g4 + -1535 ], %f13
    1670:	00 00 1c b4 	unimp  0x1cb4
    1674:	00 00 1c bc 	unimp  0x1cbc
    1678:	02 7e 00 00 	unknown
    167c:	00 01 3a 14 	unimp  0x13a14
    1680:	70 74 72 00 	call  c1d1de80 <RAM_END+0xc1c1de80>
    1684:	01 3a 00 00 	sethi  %hi(0xe8000000), %g0
    1688:	00 61 01 58 	unknown
    168c:	00 15 00 00 	unimp  0x150000
    1690:	00 86 00 00 	bn  181690 <RAM_END+0x81690>
    1694:	1c bc 00 00 	bpos  fff01694 <RAM_END+0xffe01694>
    1698:	1c c8 02 7e 	unknown
    169c:	00 16 00 00 	unimp  0x160000
    16a0:	00 8f 00 00 	bn  3c16a0 <RAM_END+0x2c16a0>
    16a4:	1c c8 00 00 	unknown
    16a8:	1c d0 02 7e 	unknown
    16ac:	00 00 00 01 	unimp  0x1
    16b0:	75 17 00 00 	call  d45c16b0 <RAM_END+0xd44c16b0>
    16b4:	00 9d 01 58 	bn  741c14 <RAM_END+0x641c14>
    16b8:	18 00 00 00 	unknown
    16bc:	86 00 00 1c 	add  %g0, %i4, %g3
    16c0:	c8 00 00 1c 	ld  [ %g0 + %i4 ], %g4
    16c4:	d0 01 5d 00 	ld  [ %g5 ], %o0
    16c8:	13 01 00 00 	sethi  %hi(0x4000000), %o1
    16cc:	04 f1 01 61 	unknown
    16d0:	01 00 00 1c 	sethi  %hi(0x7000), %g0
    16d4:	d0 00 00 1c 	ld  [ %g0 + %i4 ], %o0
    16d8:	d8 02 7e 00 	ld  [ %o1 + -512 ], %o4
    16dc:	00 00 01 b3 	unimp  0x1b3
    16e0:	11 00 00 00 	sethi  %hi(0), %o0
    16e4:	8f 00 00 1c 	taddcc  %g0, %i4, %g7
    16e8:	d0 00 00 1c 	ld  [ %g0 + %i4 ], %o0
    16ec:	d8 01 63 19 	ld  [ %g5 + 0x319 ], %o4
    16f0:	00 00 00 9d 	unimp  0x9d
    16f4:	01 18 00 00 	sethi  %hi(0x60000000), %g0
    16f8:	00 86 00 00 	bn  1816f8 <RAM_END+0x816f8>
    16fc:	1c d0 00 00 	unknown
    1700:	1c d8 01 5d 	unknown
    1704:	00 00 0c 01 	unimp  0xc01
    1708:	00 00 04 e5 	unimp  0x4e5
    170c:	01 66 01 00 	unknown
    1710:	00 00 61 00 	unimp  0x6100
    1714:	00 1c d8 00 	unimp  0x1cd800
    1718:	00 1d 64 02 	unimp  0x1d6402
    171c:	7e 00 00 00 	call  f800171c <RAM_END+0xf7f0171c>
    1720:	02 39 1a 00 	unknown
    1724:	00 04 ec 01 	unimp  0x4ec01
    1728:	66 00 00 00 	call  98001728 <RAM_END+0x97f01728>
    172c:	61 00 00 0e 	call  84001764 <RAM_END+0x83f01764>
    1730:	f8 1a 00 00 	ldd  [ %o0 ], %i4
    1734:	04 c4 01 66 	unknown
    1738:	00 00 00 61 	unimp  0x61
    173c:	00 00 0f 21 	unimp  0xf21
    1740:	1a 00 00 04 	unknown
    1744:	f7 01 66 00 	ld  [ %g5 + 0x600 ], %f27
    1748:	00 00 56 00 	unimp  0x5600
    174c:	00 0f 4a 0e 	unimp  0xf4a0e
    1750:	64 73 74 00 	call  91cde750 <RAM_END+0x91bde750>
    1754:	01 68 00 00 	unknown
    1758:	02 39 00 00 	unknown
    175c:	0f 6a 0e 73 	unknown
    1760:	72 63 00 01 	call  c98c1764 <RAM_END+0xc97c1764>
    1764:	69 00 00 02 	call  a400176c <RAM_END+0xa3f0176c>
    1768:	39 00 00 0f 	sethi  %hi(0x3c00), %i4
    176c:	93 1b 00 00 	tsubcctv  %o4, %g0, %o1
    1770:	04 e0 01 70 	unknown
    1774:	00 00 02 3f 	unimp  0x23f
    1778:	00 00 0f bc 	unimp  0xfbc
    177c:	1b 00 00 04 	sethi  %hi(0x1000), %o5
    1780:	bf 01 71 00 	taddcc  %g5, -3840, %i7
    1784:	00 02 3f 00 	unimp  0x23f00
    1788:	00 0f cf 00 	unimp  0xfcf00
    178c:	08 04 00 00 	unknown
    1790:	00 21 08 04 	unimp  0xffe10804
    1794:	00 00 00 3a 	unimp  0x3a
    1798:	1c 00 00 04 	unknown
    179c:	c9 01 28 00 	ld  [ %g4 + 0x800 ], %f4
    17a0:	00 00 61 05 	unimp  0x6105
    17a4:	03 00 00 1e 	sethi  %hi(0x7800), %g1
    17a8:	Address 0x000017a8 is out of bounds.


Disassembly of section .debug_abbrev:

00000000 <.debug_abbrev>:
   0:	01 11 01 25 	sethi  %hi(0x44049400), %g0
   4:	0e 13 0b 03 	unknown
   8:	0e 1b 0e 11 	unknown
   c:	01 12 01 10 	sethi  %hi(0x48044000), %g0
  10:	06 00 00 02 	unknown
  14:	04 01 03 0e 	unknown
  18:	0b 0b 3a 0b 	sethi  %hi(0x2ce82c00), %g5
  1c:	3b 0b 01 13 	sethi  %hi(0x2c044c00), %i5
  20:	00 00 03 28 	unimp  0x328
  24:	00 03 0e 1c 	unimp  0x30e1c
  28:	0d 00 00 04 	sethi  %hi(0x1000), %g6
  2c:	16 00 03 0e 	unknown
  30:	3a 0b 3b 0b 	unknown
  34:	49 13 00 00 	call  244c0034 <RAM_END+0x243c0034>
  38:	05 24 00 0b 	sethi  %hi(0x90002c00), %g2
  3c:	0b 3e 0b 03 	sethi  %hi(0xf82c0c00), %g5
  40:	0e 00 00 06 	unknown
  44:	24 00 0b 0b 	unknown
  48:	3e 0b 03 08 	unknown
  4c:	00 00 07 0f 	unimp  0x70f
  50:	00 0b 0b 00 	unimp  0xb0b00
  54:	00 08 2e 01 	unimp  0x82e01
  58:	03 0e 3a 0b 	sethi  %hi(0x38e82c00), %g1
  5c:	3b 0b 49 13 	sethi  %hi(0x2d244c00), %i5
  60:	20 0b 01 13 	unknown
  64:	00 00 09 34 	unimp  0x934
  68:	00 03 08 3a 	unimp  0x3083a
  6c:	0b 3b 0b 49 	sethi  %hi(0xec2d2400), %g5
  70:	13 00 00 0a 	sethi  %hi(0x2800), %o1
  74:	2e 01 03 0e 	unknown
  78:	3a 0b 3b 0b 	unknown
  7c:	27 0c 49 13 	sethi  %hi(0x31244c00), %l3
  80:	20 0b 01 13 	unknown
  84:	00 00 0b 05 	unimp  0xb05
  88:	00 03 0e 3a 	unimp  0x30e3a
  8c:	0b 3b 0b 49 	sethi  %hi(0xec2d2400), %g5
  90:	13 00 00 0c 	sethi  %hi(0x3000), %o1
  94:	05 00 03 08 	sethi  %hi(0xc2000), %g2
  98:	3a 0b 3b 0b 	unknown
  9c:	49 13 00 00 	call  244c009c <RAM_END+0x243c009c>
  a0:	0d 34 00 03 	sethi  %hi(0xd0000c00), %g6
  a4:	0e 3a 0b 3b 	unknown
  a8:	0b 49 13 00 	unknown
  ac:	00 0e 0f 00 	unimp  0xe0f00
  b0:	0b 0b 49 13 	sethi  %hi(0x2d244c00), %g5
  b4:	00 00 0f 35 	unimp  0xf35
  b8:	00 49 13 00 	unknown
  bc:	00 10 2e 01 	unimp  0x102e01
  c0:	03 0e 3a 0b 	sethi  %hi(0x38e82c00), %g1
  c4:	3b 0b 27 0c 	sethi  %hi(0x2c9c3000), %i5
  c8:	20 0b 01 13 	unknown
  cc:	00 00 11 2e 	unimp  0x112e
  d0:	01 3f 0c 03 	sethi  %hi(0xfc300c00), %g0
  d4:	0e 3a 0b 3b 	unknown
  d8:	0b 27 0c 11 	sethi  %hi(0x9c304400), %g5
  dc:	01 12 01 40 	sethi  %hi(0x48050000), %g0
  e0:	06 01 13 00 	unknown
  e4:	00 12 05 00 	unimp  0x120500
  e8:	03 08 3a 0b 	sethi  %hi(0x20e82c00), %g1
  ec:	3b 0b 49 13 	sethi  %hi(0x2d244c00), %i5
  f0:	02 0a 00 00 	unknown
  f4:	13 34 00 03 	sethi  %hi(0xd0000c00), %o1
  f8:	08 3a 0b 3b 	unknown
  fc:	0b 49 13 02 	unknown
 100:	0a 00 00 14 	unknown
 104:	34 00 03 0e 	unknown
 108:	3a 0b 3b 0b 	unknown
 10c:	49 13 02 06 	call  244c0924 <RAM_END+0x243c0924>
 110:	00 00 15 1d 	unimp  0x151d
 114:	01 31 13 11 	sethi  %hi(0xc44c4400), %g0
 118:	01 12 01 58 	sethi  %hi(0x48056000), %g0
 11c:	0b 59 0b 01 	unknown
 120:	13 00 00 16 	sethi  %hi(0x5800), %o1
 124:	0b 01 11 01 	sethi  %hi(0x4440400), %g5
 128:	12 01 00 00 	unknown
 12c:	17 34 00 31 	sethi  %hi(0xd000c400), %o3
 130:	13 02 06 00 	sethi  %hi(0x8180000), %o1
 134:	00 18 05 00 	unimp  0x180500
 138:	31 13 02 06 	sethi  %hi(0x4c081800), %i0
 13c:	00 00 19 05 	unimp  0x1905
 140:	00 31 13 1c 	unimp  0xfff1131c
 144:	0d 00 00 1a 	sethi  %hi(0x6800), %g6
 148:	1d 01 31 13 	sethi  %hi(0x4c44c00), %sp
 14c:	11 01 12 01 	sethi  %hi(0x4480400), %o0
 150:	58 0b 59 0b 	call  602d657c <RAM_END+0x601d657c>
 154:	00 00 1b 05 	unimp  0x1b05
 158:	00 31 13 1c 	unimp  0xfff1131c
 15c:	0b 00 00 1c 	sethi  %hi(0x7000), %g5
 160:	2e 01 3f 0c 	unknown
 164:	03 0e 3a 0b 	sethi  %hi(0x38e82c00), %g1
 168:	3b 0b 27 0c 	sethi  %hi(0x2c9c3000), %i5
 16c:	49 13 11 01 	call  244c4570 <RAM_END+0x243c4570>
 170:	12 01 40 06 	unknown
 174:	01 13 00 00 	sethi  %hi(0x4c000000), %g0
 178:	1d 34 00 03 	sethi  %hi(0xd0000c00), %sp
 17c:	08 3a 0b 3b 	unknown
 180:	0b 49 13 1c 	unknown
 184:	0b 00 00 1e 	sethi  %hi(0x7800), %g5
 188:	34 00 31 13 	unknown
 18c:	00 00 1f 1d 	unimp  0x1f1d
 190:	01 31 13 52 	sethi  %hi(0xc44d4800), %g0
 194:	01 55 06 58 	unknown
 198:	0b 59 0b 01 	unknown
 19c:	13 00 00 20 	sethi  %hi(0x8000), %o1
 1a0:	05 00 31 13 	sethi  %hi(0xc44c00), %g2
 1a4:	1c 05 00 00 	unknown
 1a8:	21 0b 01 55 	sethi  %hi(0x2c055400), %l0
 1ac:	06 00 00 22 	unknown
 1b0:	26 00 49 13 	unknown
 1b4:	00 00 23 01 	unimp  0x2301
 1b8:	01 49 13 01 	unknown
 1bc:	13 00 00 24 	sethi  %hi(0x9000), %o1
 1c0:	21 00 49 13 	sethi  %hi(0x1244c00), %l0
 1c4:	2f 0b 00 00 	sethi  %hi(0x2c000000), %l7
 1c8:	25 34 00 03 	sethi  %hi(0xd0000c00), %l2
 1cc:	0e 3a 0b 3b 	unknown
 1d0:	0b 49 13 02 	unknown
 1d4:	0a 00 00 00 	unknown
 1d8:	01 11 01 25 	sethi  %hi(0x44049400), %g0
 1dc:	0e 13 0b 03 	unknown
 1e0:	0e 11 01 12 	unknown
 1e4:	01 10 06 00 	sethi  %hi(0x40180000), %g0
 1e8:	00 02 24 00 	unimp  0x22400
 1ec:	0b 0b 3e 0b 	sethi  %hi(0x2cf82c00), %g5
 1f0:	03 0e 00 00 	sethi  %hi(0x38000000), %g1
 1f4:	03 24 00 0b 	sethi  %hi(0x90002c00), %g1
 1f8:	0b 3e 0b 03 	sethi  %hi(0xf82c0c00), %g5
 1fc:	08 00 00 00 	unknown
 200:	01 11 01 25 	sethi  %hi(0x44049400), %g0
 204:	0e 13 0b 03 	unknown
 208:	0e 11 01 12 	unknown
 20c:	01 10 06 00 	sethi  %hi(0x40180000), %g0
 210:	00 02 16 00 	unimp  0x21600
 214:	03 0e 3a 0b 	sethi  %hi(0x38e82c00), %g1
 218:	3b 0b 49 13 	sethi  %hi(0x2d244c00), %i5
 21c:	00 00 03 24 	unimp  0x324
 220:	00 0b 0b 3e 	unimp  0xb0b3e
 224:	0b 03 0e 00 	sethi  %hi(0xc380000), %g5
 228:	00 04 24 00 	unimp  0x42400
 22c:	0b 0b 3e 0b 	sethi  %hi(0x2cf82c00), %g5
 230:	03 08 00 00 	sethi  %hi(0x20000000), %g1
 234:	05 04 01 03 	sethi  %hi(0x10040c00), %g2
 238:	0e 0b 0b 3a 	unknown
 23c:	0b 3b 0b 01 	sethi  %hi(0xec2c0400), %g5
 240:	13 00 00 06 	sethi  %hi(0x1800), %o1
 244:	28 00 03 0e 	unknown
 248:	1c 0d 00 00 	unknown
 24c:	07 15 01 27 	sethi  %hi(0x54049c00), %g3
 250:	0c 01 13 00 	unknown
 254:	00 08 05 00 	unimp  0x80500
 258:	49 13 00 00 	call  244c0258 <RAM_END+0x243c0258>
 25c:	09 0f 00 0b 	sethi  %hi(0x3c002c00), %g4
 260:	0b 00 00 0a 	sethi  %hi(0x2800), %g5
 264:	2e 01 03 0e 	unknown
 268:	3a 0b 3b 0b 	unknown
 26c:	49 13 20 0b 	call  244c8298 <RAM_END+0x243c8298>
 270:	01 13 00 00 	sethi  %hi(0x4c000000), %g0
 274:	0b 34 00 03 	sethi  %hi(0xd0000c00), %g5
 278:	08 3a 0b 3b 	unknown
 27c:	0b 49 13 00 	unknown
 280:	00 0c 2e 01 	unimp  0xc2e01
 284:	03 0e 3a 0b 	sethi  %hi(0x38e82c00), %g1
 288:	3b 0b 27 0c 	sethi  %hi(0x2c9c3000), %i5
 28c:	20 0b 01 13 	unknown
 290:	00 00 0d 05 	unimp  0xd05
 294:	00 03 0e 3a 	unimp  0x30e3a
 298:	0b 3b 0b 49 	sethi  %hi(0xec2d2400), %g5
 29c:	13 00 00 0e 	sethi  %hi(0x3800), %o1
 2a0:	05 00 03 08 	sethi  %hi(0xc2000), %g2
 2a4:	3a 0b 3b 0b 	unknown
 2a8:	49 13 00 00 	call  244c02a8 <RAM_END+0x243c02a8>
 2ac:	0f 34 00 03 	sethi  %hi(0xd0000c00), %g7
 2b0:	0e 3a 0b 3b 	unknown
 2b4:	0b 49 13 00 	unknown
 2b8:	00 10 0f 00 	unimp  0x100f00
 2bc:	0b 0b 49 13 	sethi  %hi(0x2d244c00), %g5
 2c0:	00 00 11 35 	unimp  0x1135
 2c4:	00 49 13 00 	unknown
 2c8:	00 12 2e 01 	unimp  0x122e01
 2cc:	03 0e 3a 0b 	sethi  %hi(0x38e82c00), %g1
 2d0:	3b 0b 27 0c 	sethi  %hi(0x2c9c3000), %i5
 2d4:	49 13 20 0b 	call  244c8300 <RAM_END+0x243c8300>
 2d8:	01 13 00 00 	sethi  %hi(0x4c000000), %g0
 2dc:	13 2e 00 03 	sethi  %hi(0xb8000c00), %o1
 2e0:	0e 3a 0b 3b 	unknown
 2e4:	0b 27 0c 20 	sethi  %hi(0x9c308000), %g5
 2e8:	0b 00 00 14 	sethi  %hi(0x5000), %g5
 2ec:	26 00 49 13 	unknown
 2f0:	00 00 15 2e 	unimp  0x152e
 2f4:	00 03 0e 3a 	unimp  0x30e3a
 2f8:	0b 3b 0b 49 	sethi  %hi(0xec2d2400), %g5
 2fc:	13 20 0b 00 	sethi  %hi(0x802c0000), %o1
 300:	00 16 2e 01 	unimp  0x162e01
 304:	3f 0c 03 0e 	sethi  %hi(0x300c3800), %i7
 308:	3a 0b 3b 0b 	unknown
 30c:	27 0c 49 13 	sethi  %hi(0x31244c00), %l3
 310:	20 0b 01 13 	unknown
 314:	00 00 17 2e 	unimp  0x172e
 318:	01 03 08 3a 	sethi  %hi(0xc20e800), %g0
 31c:	0b 3b 05 27 	sethi  %hi(0xec149c00), %g5
 320:	0c 49 13 20 	unknown
 324:	0b 01 13 00 	sethi  %hi(0x44c0000), %g5
 328:	00 18 05 00 	unimp  0x180500
 32c:	03 0e 3a 0b 	sethi  %hi(0x38e82c00), %g1
 330:	3b 05 49 13 	sethi  %hi(0x15244c00), %i5
 334:	00 00 19 34 	unimp  0x1934
 338:	00 03 08 3a 	unimp  0x3083a
 33c:	0b 3b 05 49 	sethi  %hi(0xec152400), %g5
 340:	13 00 00 1a 	sethi  %hi(0x6800), %o1
 344:	2e 01 31 13 	unknown
 348:	11 01 12 01 	sethi  %hi(0x4480400), %o0
 34c:	40 0a 01 13 	call  280798 <RAM_END+0x180798>
 350:	00 00 1b 05 	unimp  0x1b05
 354:	00 31 13 02 	unimp  0xfff11302
 358:	0a 00 00 1c 	unknown
 35c:	1d 01 31 13 	sethi  %hi(0x4c44c00), %sp
 360:	11 01 12 01 	sethi  %hi(0x4480400), %o0
 364:	58 0b 59 0b 	call  602d6790 <RAM_END+0x601d6790>
 368:	00 00 1d 1d 	unimp  0x1d1d
 36c:	01 31 13 11 	sethi  %hi(0xc44c4400), %g0
 370:	01 12 01 58 	sethi  %hi(0x48056000), %g0
 374:	0b 59 0b 01 	unknown
 378:	13 00 00 1e 	sethi  %hi(0x7800), %o1
 37c:	0b 01 11 01 	sethi  %hi(0x4440400), %g5
 380:	12 01 00 00 	unknown
 384:	1f 34 00 31 	sethi  %hi(0xd000c400), %o7
 388:	13 02 06 00 	sethi  %hi(0x8180000), %o1
 38c:	00 20 1d 01 	unimp  0xffe01d01
 390:	31 13 52 01 	sethi  %hi(0x4d480400), %i0
 394:	55 06 58 0b 	call  541963c0 <RAM_END+0x540963c0>
 398:	59 0b 00 00 	call  642c0398 <RAM_END+0x641c0398>
 39c:	21 05 00 31 	sethi  %hi(0x1400c400), %l0
 3a0:	13 02 06 00 	sethi  %hi(0x8180000), %o1
 3a4:	00 22 05 00 	unimp  0xffe20500
 3a8:	31 13 1c 0d 	sethi  %hi(0x4c703400), %i0
 3ac:	00 00 23 0b 	unimp  0x230b
 3b0:	01 55 06 00 	unknown
 3b4:	00 24 2e 01 	unimp  0xffe42e01
 3b8:	3f 0c 03 0e 	sethi  %hi(0x300c3800), %i7
 3bc:	3a 0b 3b 0b 	unknown
 3c0:	49 13 11 01 	call  244c47c4 <RAM_END+0x243c47c4>
 3c4:	12 01 40 0a 	unknown
 3c8:	01 13 00 00 	sethi  %hi(0x4c000000), %g0
 3cc:	25 1d 01 31 	sethi  %hi(0x7404c400), %l2
 3d0:	13 52 01 55 	unknown
 3d4:	06 58 0b 59 	unknown
 3d8:	0b 01 13 00 	sethi  %hi(0x44c0000), %g5
 3dc:	00 26 2e 01 	unimp  0xffe62e01
 3e0:	3f 0c 03 0e 	sethi  %hi(0x300c3800), %i7
 3e4:	3a 0b 3b 0b 	unknown
 3e8:	27 0c 49 13 	sethi  %hi(0x31244c00), %l3
 3ec:	11 01 12 01 	sethi  %hi(0x4480400), %o0
 3f0:	40 0a 01 13 	call  28083c <RAM_END+0x18083c>
 3f4:	00 00 27 05 	unimp  0x2705
 3f8:	00 03 08 3a 	unimp  0x3083a
 3fc:	0b 3b 0b 49 	sethi  %hi(0xec2d2400), %g5
 400:	13 02 06 00 	sethi  %hi(0x8180000), %o1
 404:	00 28 05 00 	unimp  0xffe80500
 408:	31 13 00 00 	sethi  %hi(0x4c000000), %i0
 40c:	29 05 00 31 	sethi  %hi(0x1400c400), %l4
 410:	13 1c 0b 00 	sethi  %hi(0x702c0000), %o1
 414:	00 2a 2e 01 	unimp  0xffea2e01
 418:	3f 0c 03 0e 	sethi  %hi(0x300c3800), %i7
 41c:	3a 0b 3b 0b 	unknown
 420:	27 0c 11 01 	sethi  %hi(0x30440400), %l3
 424:	12 01 40 06 	unknown
 428:	01 13 00 00 	sethi  %hi(0x4c000000), %g0
 42c:	2b 2e 00 3f 	sethi  %hi(0xb800fc00), %l5
 430:	0c 03 0e 3a 	unknown
 434:	0b 3b 0b 49 	sethi  %hi(0xec2d2400), %g5
 438:	13 11 01 12 	sethi  %hi(0x44044800), %o1
 43c:	01 40 0a 00 	unknown
 440:	00 2c 2e 01 	unimp  0xffec2e01
 444:	3f 0c 03 0e 	sethi  %hi(0x300c3800), %i7
 448:	3a 0b 3b 0b 	unknown
 44c:	27 0c 11 01 	sethi  %hi(0x30440400), %l3
 450:	12 01 40 0a 	unknown
 454:	01 13 00 00 	sethi  %hi(0x4c000000), %g0
 458:	2d 05 00 03 	sethi  %hi(0x14000c00), %l6
 45c:	0e 3a 0b 3b 	unknown
 460:	0b 49 13 02 	unknown
 464:	0a 00 00 2e 	unknown
 468:	05 00 03 0e 	sethi  %hi(0xc3800), %g2
 46c:	3a 0b 3b 0b 	unknown
 470:	49 13 02 06 	call  244c0c88 <RAM_END+0x243c0c88>
 474:	00 00 2f 05 	unimp  0x2f05
 478:	00 03 08 3a 	unimp  0x3083a
 47c:	0b 3b 0b 49 	sethi  %hi(0xec2d2400), %g5
 480:	13 02 0a 00 	sethi  %hi(0x8280000), %o1
 484:	00 30 34 00 	unimp  0xfff03400
 488:	31 13 00 00 	sethi  %hi(0x4c000000), %i0
 48c:	31 34 00 03 	sethi  %hi(0xd0000c00), %i0
 490:	0e 49 13 34 	unknown
 494:	0c 02 0a 00 	unknown
 498:	00 32 01 01 	unimp  0xfff20101
 49c:	49 13 01 13 	call  244c08e8 <RAM_END+0x243c08e8>
 4a0:	00 00 33 21 	unimp  0x3321
 4a4:	00 49 13 2f 	unknown
 4a8:	0b 00 00 34 	sethi  %hi(0xd000), %g5
 4ac:	2e 01 3f 0c 	unknown
 4b0:	03 0e 3a 0b 	sethi  %hi(0x38e82c00), %g1
 4b4:	3b 05 27 0c 	sethi  %hi(0x149c3000), %i5
 4b8:	49 13 11 01 	call  244c48bc <RAM_END+0x243c48bc>
 4bc:	12 01 40 0a 	unknown
 4c0:	01 13 00 00 	sethi  %hi(0x4c000000), %g0
 4c4:	35 05 00 03 	sethi  %hi(0x14000c00), %i2
 4c8:	0e 3a 0b 3b 	unknown
 4cc:	05 49 13 02 	unknown
 4d0:	06 00 00 36 	unknown
 4d4:	05 00 03 0e 	sethi  %hi(0xc3800), %g2
 4d8:	3a 0b 3b 05 	unknown
 4dc:	49 13 02 0a 	call  244c0d04 <RAM_END+0x243c0d04>
 4e0:	00 00 37 34 	unimp  0x3734
 4e4:	00 03 08 3a 	unimp  0x3083a
 4e8:	0b 3b 05 49 	sethi  %hi(0xec152400), %g5
 4ec:	13 02 0a 00 	sethi  %hi(0x8280000), %o1
 4f0:	00 38 34 00 	unimp  0xfff83400
 4f4:	03 0e 3a 0b 	sethi  %hi(0x38e82c00), %g1
 4f8:	3b 05 49 13 	sethi  %hi(0x15244c00), %i5
 4fc:	00 00 39 1d 	unimp  0x391d
 500:	01 31 13 11 	sethi  %hi(0xc44c4400), %g0
 504:	01 12 01 58 	sethi  %hi(0x48056000), %g0
 508:	0b 59 05 01 	unknown
 50c:	13 00 00 3a 	sethi  %hi(0xe800), %o1
 510:	1d 01 31 13 	sethi  %hi(0x4c44c00), %sp
 514:	11 01 12 01 	sethi  %hi(0x4480400), %o0
 518:	58 0b 59 05 	call  602d692c <RAM_END+0x601d692c>
 51c:	00 00 3b 34 	unimp  0x3b34
 520:	00 31 13 1c 	unimp  0xfff1131c
 524:	0b 00 00 3c 	sethi  %hi(0xf000), %g5
 528:	2e 01 3f 0c 	unknown
 52c:	03 0e 3a 0b 	sethi  %hi(0x38e82c00), %g1
 530:	3b 05 27 0c 	sethi  %hi(0x149c3000), %i5
 534:	11 01 12 01 	sethi  %hi(0x4480400), %o0
 538:	40 0a 01 13 	call  280984 <RAM_END+0x180984>
 53c:	00 00 3d 2e 	unimp  0x3d2e
 540:	00 3f 0c 03 	unimp  0xffff0c03
 544:	0e 3a 0b 3b 	unknown
 548:	05 11 01 12 	sethi  %hi(0x44044800), %g2
 54c:	01 40 0a 00 	unknown
 550:	00 3e 34 00 	unimp  0xfffe3400
 554:	03 0e 3a 0b 	sethi  %hi(0x38e82c00), %g1
 558:	3b 0b 49 13 	sethi  %hi(0x2d244c00), %i5
 55c:	3f 0c 3c 0c 	sethi  %hi(0x30f03000), %i7
 560:	00 00 3f 34 	unimp  0x3f34
 564:	00 03 0e 3a 	unimp  0x30e3a
 568:	0b 3b 0b 49 	sethi  %hi(0xec2d2400), %g5
 56c:	13 3f 0c 02 	sethi  %hi(0xfc300800), %o1
 570:	0a 00 00 00 	unknown
 574:	01 11 01 25 	sethi  %hi(0x44049400), %g0
 578:	0e 13 0b 03 	unknown
 57c:	0e 11 01 12 	unknown
 580:	01 10 06 00 	sethi  %hi(0x40180000), %g0
 584:	00 02 16 00 	unimp  0x21600
 588:	03 0e 3a 0b 	sethi  %hi(0x38e82c00), %g1
 58c:	3b 0b 49 13 	sethi  %hi(0x2d244c00), %i5
 590:	00 00 03 0f 	unimp  0x30f
 594:	00 0b 0b 03 	unimp  0xb0b03
 598:	0e 00 00 04 	unknown
 59c:	24 00 0b 0b 	unknown
 5a0:	3e 0b 03 0e 	unknown
 5a4:	00 00 05 24 	unimp  0x524
 5a8:	00 0b 0b 3e 	unimp  0xb0b3e
 5ac:	0b 03 08 00 	sethi  %hi(0xc200000), %g5
 5b0:	00 06 04 01 	unimp  0x60401
 5b4:	03 0e 0b 0b 	sethi  %hi(0x382c2c00), %g1
 5b8:	3a 0b 3b 0b 	unknown
 5bc:	01 13 00 00 	sethi  %hi(0x4c000000), %g0
 5c0:	07 28 00 03 	sethi  %hi(0xa0000c00), %g3
 5c4:	0e 1c 0d 00 	unknown
 5c8:	00 08 0f 00 	unimp  0x80f00
 5cc:	0b 0b 00 00 	sethi  %hi(0x2c000000), %g5
 5d0:	09 2e 01 03 	sethi  %hi(0xb8040c00), %g4
 5d4:	0e 3a 0b 3b 	unknown
 5d8:	0b 49 13 20 	unknown
 5dc:	0b 01 13 00 	sethi  %hi(0x44c0000), %g5
 5e0:	00 0a 34 00 	unimp  0xa3400
 5e4:	03 08 3a 0b 	sethi  %hi(0x20e82c00), %g1
 5e8:	3b 0b 49 13 	sethi  %hi(0x2d244c00), %i5
 5ec:	00 00 0b 2e 	unimp  0xb2e
 5f0:	01 03 0e 3a 	sethi  %hi(0xc38e800), %g0
 5f4:	0b 3b 0b 27 	sethi  %hi(0xec2c9c00), %g5
 5f8:	0c 20 0b 01 	unknown
 5fc:	13 00 00 0c 	sethi  %hi(0x3000), %o1
 600:	05 00 03 0e 	sethi  %hi(0xc3800), %g2
 604:	3a 0b 3b 0b 	unknown
 608:	49 13 00 00 	call  244c0608 <RAM_END+0x243c0608>
 60c:	0d 05 00 03 	sethi  %hi(0x14000c00), %g6
 610:	08 3a 0b 3b 	unknown
 614:	0b 49 13 00 	unknown
 618:	00 0e 34 00 	unimp  0xe3400
 61c:	03 0e 3a 0b 	sethi  %hi(0x38e82c00), %g1
 620:	3b 0b 49 13 	sethi  %hi(0x2d244c00), %i5
 624:	00 00 0f 0f 	unimp  0xf0f
 628:	00 0b 0b 49 	unimp  0xb0b49
 62c:	13 00 00 10 	sethi  %hi(0x4000), %o1
 630:	35 00 49 13 	sethi  %hi(0x1244c00), %i2
 634:	00 00 11 2e 	unimp  0x112e
 638:	01 03 0e 3a 	sethi  %hi(0xc38e800), %g0
 63c:	0b 3b 0b 27 	sethi  %hi(0xec2c9c00), %g5
 640:	0c 49 13 20 	unknown
 644:	0b 01 13 00 	sethi  %hi(0x44c0000), %g5
 648:	00 12 26 00 	unimp  0x122600
 64c:	49 13 00 00 	call  244c064c <RAM_END+0x243c064c>
 650:	13 2e 01 3f 	sethi  %hi(0xb804fc00), %o1
 654:	0c 03 0e 3a 	unknown
 658:	0b 3b 0b 27 	sethi  %hi(0xec2c9c00), %g5
 65c:	0c 49 13 11 	unknown
 660:	01 12 01 40 	sethi  %hi(0x48050000), %g0
 664:	06 01 13 00 	unknown
 668:	00 14 05 00 	unimp  0x140500
 66c:	03 08 3a 0b 	sethi  %hi(0x20e82c00), %g1
 670:	3b 0b 49 13 	sethi  %hi(0x2d244c00), %i5
 674:	02 06 00 00 	unknown
 678:	15 34 00 03 	sethi  %hi(0xd0000c00), %o2
 67c:	08 3a 0b 3b 	unknown
 680:	0b 49 13 02 	unknown
 684:	0a 00 00 16 	unknown
 688:	2e 01 3f 0c 	unknown
 68c:	03 0e 3a 0b 	sethi  %hi(0x38e82c00), %g1
 690:	3b 0b 27 0c 	sethi  %hi(0x2c9c3000), %i5
 694:	49 13 11 01 	call  244c4a98 <RAM_END+0x243c4a98>
 698:	12 01 40 0a 	unknown
 69c:	01 13 00 00 	sethi  %hi(0x4c000000), %g0
 6a0:	17 18 00 00 	sethi  %hi(0x60000000), %o3
 6a4:	00 18 34 00 	unimp  0x183400
 6a8:	03 08 3a 0b 	sethi  %hi(0x20e82c00), %g1
 6ac:	3b 0b 49 13 	sethi  %hi(0x2d244c00), %i5
 6b0:	02 06 00 00 	unknown
 6b4:	19 34 00 03 	sethi  %hi(0xd0000c00), %o4
 6b8:	0e 3a 0b 3b 	unknown
 6bc:	0b 49 13 02 	unknown
 6c0:	06 00 00 1a 	unknown
 6c4:	0a 00 03 0e 	unknown
 6c8:	3a 0b 3b 0b 	unknown
 6cc:	00 00 1b 0a 	unimp  0x1b0a
 6d0:	00 03 0e 3a 	unimp  0x30e3a
 6d4:	0b 3b 0b 11 	sethi  %hi(0xec2c4400), %g5
 6d8:	01 00 00 1c 	sethi  %hi(0x7000), %g0
 6dc:	1d 01 31 13 	sethi  %hi(0x4c44c00), %sp
 6e0:	52 01 55 06 	call  48055af8 <RAM_END+0x47f55af8>
 6e4:	58 0b 59 0b 	call  602d6b10 <RAM_END+0x601d6b10>
 6e8:	01 13 00 00 	sethi  %hi(0x4c000000), %g0
 6ec:	1d 05 00 31 	sethi  %hi(0x1400c400), %sp
 6f0:	13 00 00 1e 	sethi  %hi(0x7800), %o1
 6f4:	1d 01 31 13 	sethi  %hi(0x4c44c00), %sp
 6f8:	11 01 12 01 	sethi  %hi(0x4480400), %o0
 6fc:	58 0b 59 0b 	call  602d6b28 <RAM_END+0x601d6b28>
 700:	01 13 00 00 	sethi  %hi(0x4c000000), %g0
 704:	1f 0b 01 11 	sethi  %hi(0x2c044400), %o7
 708:	01 12 01 00 	sethi  %hi(0x48040000), %g0
 70c:	00 20 34 00 	unimp  0xffe03400
 710:	31 13 02 06 	sethi  %hi(0x4c081800), %i0
 714:	00 00 21 1d 	unimp  0x211d
 718:	01 31 13 52 	sethi  %hi(0xc44d4800), %g0
 71c:	01 55 06 58 	unknown
 720:	0b 59 0b 00 	unknown
 724:	00 22 05 00 	unimp  0xffe20500
 728:	31 13 02 06 	sethi  %hi(0x4c081800), %i0
 72c:	00 00 23 0b 	unimp  0x230b
 730:	01 55 06 00 	unknown
 734:	00 24 1d 01 	unimp  0xffe41d01
 738:	31 13 11 01 	sethi  %hi(0x4c440400), %i0
 73c:	12 01 58 0b 	unknown
 740:	59 0b 00 00 	call  642c0740 <RAM_END+0x641c0740>
 744:	25 01 01 49 	sethi  %hi(0x4052400), %l2
 748:	13 01 13 00 	sethi  %hi(0x44c0000), %o1
 74c:	00 26 21 00 	unimp  0xffe62100
 750:	49 13 2f 0b 	call  244cc37c <RAM_END+0x243cc37c>
 754:	00 00 27 05 	unimp  0x2705
 758:	00 03 0e 3a 	unimp  0x30e3a
 75c:	0b 3b 0b 49 	sethi  %hi(0xec2d2400), %g5
 760:	13 02 06 00 	sethi  %hi(0x8180000), %o1
 764:	00 00 01 11 	unimp  0x111
 768:	01 25 0e 13 	sethi  %hi(0x94384c00), %g0
 76c:	0b 03 0e 11 	sethi  %hi(0xc384400), %g5
 770:	01 12 01 10 	sethi  %hi(0x48044000), %g0
 774:	06 00 00 02 	unknown
 778:	16 00 03 0e 	unknown
 77c:	3a 0b 3b 0b 	unknown
 780:	49 13 00 00 	call  244c0780 <RAM_END+0x243c0780>
 784:	03 24 00 0b 	sethi  %hi(0x90002c00), %g1
 788:	0b 3e 0b 03 	sethi  %hi(0xf82c0c00), %g5
 78c:	0e 00 00 04 	unknown
 790:	24 00 0b 0b 	unknown
 794:	3e 0b 03 08 	unknown
 798:	00 00 05 0f 	unimp  0x50f
 79c:	00 0b 0b 00 	unimp  0xb0b00
 7a0:	00 06 2e 01 	unimp  0x62e01
 7a4:	03 0e 3a 0b 	sethi  %hi(0x38e82c00), %g1
 7a8:	3b 0b 27 0c 	sethi  %hi(0x2c9c3000), %i5
 7ac:	49 13 20 0b 	call  244c87d8 <RAM_END+0x243c87d8>
 7b0:	01 13 00 00 	sethi  %hi(0x4c000000), %g0
 7b4:	07 05 00 03 	sethi  %hi(0x14000c00), %g3
 7b8:	08 3a 0b 3b 	unknown
 7bc:	0b 49 13 00 	unknown
 7c0:	00 08 0f 00 	unimp  0x80f00
 7c4:	0b 0b 49 13 	sethi  %hi(0x2d244c00), %g5
 7c8:	00 00 09 2e 	unimp  0x92e
 7cc:	00 3f 0c 03 	unimp  0xffff0c03
 7d0:	0e 3a 0b 3b 	unknown
 7d4:	0b 20 0b 00 	sethi  %hi(0x802c0000), %g5
 7d8:	00 0a 2e 01 	unimp  0xa2e01
 7dc:	3f 0c 03 0e 	sethi  %hi(0x300c3800), %i7
 7e0:	3a 0b 3b 0b 	unknown
 7e4:	27 0c 20 0b 	sethi  %hi(0x30802c00), %l3
 7e8:	01 13 00 00 	sethi  %hi(0x4c000000), %g0
 7ec:	0b 05 00 03 	sethi  %hi(0x14000c00), %g5
 7f0:	0e 3a 0b 3b 	unknown
 7f4:	0b 49 13 00 	unknown
 7f8:	00 0c 2e 01 	unimp  0xc2e01
 7fc:	3f 0c 03 0e 	sethi  %hi(0x300c3800), %i7
 800:	3a 0b 3b 0b 	unknown
 804:	27 0c 49 13 	sethi  %hi(0x31244c00), %l3
 808:	11 01 12 01 	sethi  %hi(0x4480400), %o0
 80c:	40 0a 01 13 	call  280c58 <RAM_END+0x180c58>
 810:	00 00 0d 05 	unimp  0xd05
 814:	00 03 08 3a 	unimp  0x3083a
 818:	0b 3b 0b 49 	sethi  %hi(0xec2d2400), %g5
 81c:	13 02 06 00 	sethi  %hi(0x8180000), %o1
 820:	00 0e 34 00 	unimp  0xe3400
 824:	03 08 3a 0b 	sethi  %hi(0x20e82c00), %g1
 828:	3b 0b 49 13 	sethi  %hi(0x2d244c00), %i5
 82c:	02 06 00 00 	unknown
 830:	0f 1d 01 31 	sethi  %hi(0x7404c400), %g7
 834:	13 52 01 55 	unknown
 838:	06 58 0b 59 	unknown
 83c:	0b 01 13 00 	sethi  %hi(0x44c0000), %g5
 840:	00 10 05 00 	unimp  0x100500
 844:	31 13 02 06 	sethi  %hi(0x4c081800), %i0
 848:	00 00 11 1d 	unimp  0x111d
 84c:	01 31 13 11 	sethi  %hi(0xc44c4400), %g0
 850:	01 12 01 58 	sethi  %hi(0x48056000), %g0
 854:	0b 59 0b 00 	unknown
 858:	00 12 05 00 	unimp  0x120500
 85c:	31 13 00 00 	sethi  %hi(0x4c000000), %i0
 860:	13 2e 01 3f 	sethi  %hi(0xb804fc00), %o1
 864:	0c 03 0e 3a 	unknown
 868:	0b 3b 0b 27 	sethi  %hi(0xec2c9c00), %g5
 86c:	0c 11 01 12 	unknown
 870:	01 40 0a 01 	unknown
 874:	13 00 00 14 	sethi  %hi(0x5000), %o1
 878:	05 00 03 08 	sethi  %hi(0xc2000), %g2
 87c:	3a 0b 3b 0b 	unknown
 880:	49 13 02 0a 	call  244c10a8 <RAM_END+0x243c10a8>
 884:	00 00 15 2e 	unimp  0x152e
 888:	00 31 13 11 	unimp  0xfff11311
 88c:	01 12 01 40 	sethi  %hi(0x48050000), %g0
 890:	0a 00 00 16 	unknown
 894:	2e 01 31 13 	unknown
 898:	11 01 12 01 	sethi  %hi(0x4480400), %o0
 89c:	40 0a 01 13 	call  280ce8 <RAM_END+0x180ce8>
 8a0:	00 00 17 05 	unimp  0x1705
 8a4:	00 31 13 02 	unimp  0xfff11302
 8a8:	0a 00 00 18 	unknown
 8ac:	1d 00 31 13 	sethi  %hi(0xc44c00), %sp
 8b0:	11 01 12 01 	sethi  %hi(0x4480400), %o0
 8b4:	58 0b 59 0b 	call  602d6ce0 <RAM_END+0x601d6ce0>
 8b8:	00 00 19 05 	unimp  0x1905
 8bc:	00 31 13 1c 	unimp  0xfff1131c
 8c0:	0b 00 00 1a 	sethi  %hi(0x6800), %g5
 8c4:	05 00 03 0e 	sethi  %hi(0xc3800), %g2
 8c8:	3a 0b 3b 0b 	unknown
 8cc:	49 13 02 06 	call  244c10e4 <RAM_END+0x243c10e4>
 8d0:	00 00 1b 34 	unimp  0x1b34
 8d4:	00 03 0e 3a 	unimp  0x30e3a
 8d8:	0b 3b 0b 49 	sethi  %hi(0xec2d2400), %g5
 8dc:	13 02 06 00 	sethi  %hi(0x8180000), %o1
 8e0:	00 1c 34 00 	unimp  0x1c3400
 8e4:	03 0e 3a 0b 	sethi  %hi(0x38e82c00), %g1
 8e8:	3b 0b 49 13 	sethi  %hi(0x2d244c00), %i5
 8ec:	02 0a 00 00 	unknown
	...

Disassembly of section .debug_line:

00000000 <.debug_line>:
   0:	00 00 01 71 	unimp  0x171
   4:	00 02 00 00 	unimp  0x20000
   8:	00 c9 04 01 	unknown
   c:	fb 0e 0d 00 	unknown
  10:	01 01 01 01 	sethi  %hi(0x4040400), %g0
  14:	00 00 00 01 	unimp  0x1
  18:	00 00 01 2f 	unimp  0x12f
  1c:	72 6f 6f 74 	call  c9bdbdec <RAM_END+0xc9adbdec>
  20:	2f 73 6f 63 	unknown
  24:	6c 69 62 2f 	call  b1a588e0 <RAM_END+0xb19588e0>
  28:	73 6f 63 6c 	call  cdbd8dd8 <RAM_END+0xcdad8dd8>
  2c:	69 62 2f 70 	call  a588bdec <RAM_END+0xa578bdec>
  30:	6c 61 74 66 	call  b185d1c8 <RAM_END+0xb175d1c8>
  34:	6f 72 6d 2f 	call  bdc9b4f0 <RAM_END+0xbdb9b4f0>
  38:	74 6f 70 63 	call  d1bdc1c4 <RAM_END+0xd1adc1c4>
  3c:	65 6c 6c 73 	call  95b1b208 <RAM_END+0x95a1b208>
  40:	2f 63 6f 6d 	unknown
  44:	6d 6f 6e 00 	call  b5bdb844 <RAM_END+0xb5adb844>
  48:	2f 72 6f 6f 	unknown
  4c:	74 2f 73 6f 	call  d0bdce08 <RAM_END+0xd0adce08>
  50:	63 6c 69 62 	call  8db1a5d8 <RAM_END+0x8da1a5d8>
  54:	2f 73 6f 63 	unknown
  58:	6c 69 62 2f 	call  b1a58914 <RAM_END+0xb1958914>
  5c:	6d 6f 64 75 	call  b5bd9230 <RAM_END+0xb5ad9230>
  60:	6c 65 2f 69 	call  b194be04 <RAM_END+0xb184be04>
  64:	6e 74 65 72 	call  b9d1962c <RAM_END+0xb9c1962c>
  68:	6e 61 6c 5f 	call  b985b1e4 <RAM_END+0xb975b1e4>
  6c:	63 6f 6d 70 	call  8dbdb62c <RAM_END+0x8dadb62c>
  70:	6f 6e 65 6e 	call  bdb99628 <RAM_END+0xbda99628>
  74:	74 2f 76 63 	call  d0bdda00 <RAM_END+0xd0adda00>
  78:	69 5f 74 69 	call  a57dd21c <RAM_END+0xa56dd21c>
  7c:	6d 65 72 2f 	call  b595c938 <RAM_END+0xb585c938>
  80:	69 6e 63 6c 	call  a5b98e30 <RAM_END+0xa5a98e30>
  84:	75 64 65 2f 	call  d5919540 <RAM_END+0xd5819540>
  88:	73 6f 63 6c 	call  cdbd8e38 <RAM_END+0xcdad8e38>
  8c:	69 62 00 00 	call  a588008c <RAM_END+0xa578008c>
  90:	6d 61 69 6e 	call  b585a648 <RAM_END+0xb575a648>
  94:	2e 63 00 00 	unknown
  98:	00 00 73 79 	unimp  0x7379
  9c:	73 74 65 6d 	call  cdd19650 <RAM_END+0xcdc19650>
  a0:	5f 73 70 61 	call  7dcdc224 <RAM_END+0x7dbdc224>
  a4:	72 63 2e 68 	call  c98cba44 <RAM_END+0xc97cba44>
  a8:	00 01 00 00 	unimp  0x10000
  ac:	73 6f 63 6c 	call  cdbd8e5c <RAM_END+0xcdad8e5c>
  b0:	69 62 5f 69 	call  a5897e54 <RAM_END+0xa5797e54>
  b4:	6f 2e 68 00 	call  bcb9a0b4 <RAM_END+0xbca9a0b4>
  b8:	01 00 00 74 	sethi  %hi(0x1d000), %g0
  bc:	69 6d 65 72 	call  a5b59684 <RAM_END+0xa5a59684>
  c0:	2e 68 00 02 	unknown
  c4:	00 00 73 74 	unimp  0x7374
  c8:	64 69 6e 74 	call  91a5ba98 <RAM_END+0x9195ba98>
  cc:	2e 68 00 01 	unknown
  d0:	00 00 00 00 	unimp  0
  d4:	05 02 00 00 	sethi  %hi(0x8000000), %g2
  d8:	12 98 03 26 	bne  600d70 <RAM_END+0x500d70>
  dc:	01 21 3e 04 	sethi  %hi(0x84f81000), %g0
  e0:	02 03 27 58 	unknown
  e4:	04 03 03 77 	unknown
  e8:	20 26 21 24 	unknown
  ec:	04 02 10 04 	unknown
  f0:	01 03 5e 20 	sethi  %hi(0xd788000), %g0
  f4:	04 02 03 22 	unknown
  f8:	4a 04 01 03 	call  28100504 <RAM_END+0x28000504>
  fc:	61 20 04 03 	call  84801108 <RAM_END+0x84701108>
 100:	28 24 21 04 	unknown
 104:	01 03 75 01 	sethi  %hi(0xdd40400), %g0
 108:	31 04 02 03 	sethi  %hi(0x10080c00), %i0
 10c:	1a 20 04 01 	unknown
 110:	03 69 2e 3e 	unknown
 114:	04 02 03 77 	unknown
 118:	3c 04 01 03 	unknown
 11c:	0b 74 33 4b 	unknown
 120:	4b 04 02 03 	call  2c10092c <RAM_END+0x2c00092c>
 124:	0c 4a 04 03 	unknown
 128:	03 77 20 26 	unknown
 12c:	21 24 04 01 	sethi  %hi(0x90100400), %l0
 130:	03 76 01 04 	unknown
 134:	02 44 04 03 	unknown
 138:	03 6d 20 04 	unknown
 13c:	01 03 10 20 	sethi  %hi(0xc408000), %g0
 140:	04 03 03 70 	unknown
 144:	20 1c 24 21 	unknown
 148:	04 02 03 12 	unknown
 14c:	01 04 03 03 	sethi  %hi(0x100c0c00), %g0
 150:	6d 20 04 01 	call  b4801154 <RAM_END+0xb4701154>
 154:	03 16 20 04 	sethi  %hi(0x58801000), %g1
 158:	03 03 66 20 	sethi  %hi(0xd988000), %g1
 15c:	24 21 04 02 	unknown
 160:	03 12 01 04 	sethi  %hi(0x48041000), %g1
 164:	03 03 77 20 	sethi  %hi(0xddc8000), %g1
 168:	18 21 24 04 	unknown
 16c:	01 03 0e 01 	sethi  %hi(0xc380400), %g0
 170:	02 03 00 01 	unknown
 174:	01 00 00 00 	nop 
 178:	19 00 02 00 	sethi  %hi(0x80000), %o4
 17c:	00 00 13 04 	unimp  0x1304
 180:	01 fb 0e 0d 	cbn  ffec39b4 <RAM_END+0xffdc39b4>
 184:	00 01 01 01 	unimp  0x10101
 188:	01 00 00 00 	nop 
 18c:	01 00 00 01 	sethi  %hi(0x400), %g0
 190:	00 00 00 00 	unimp  0
 194:	02 2a 00 02 	unknown
 198:	00 00 00 dd 	unimp  0xdd
 19c:	04 01 fb 0e 	unknown
 1a0:	0d 00 01 01 	sethi  %hi(0x40400), %g6
 1a4:	01 01 00 00 	sethi  %hi(0x4000000), %g0
 1a8:	00 01 00 00 	unimp  0x10000
 1ac:	01 2f 72 6f 	sethi  %hi(0xbdc9bc00), %g0
 1b0:	6f 74 2f 73 	call  bdd0bf7c <RAM_END+0xbdc0bf7c>
 1b4:	6f 63 6c 69 	call  bd8db358 <RAM_END+0xbd7db358>
 1b8:	62 2f 73 6f 	call  88bdcf74 <RAM_END+0x88adcf74>
 1bc:	63 6c 69 62 	call  8db1a744 <RAM_END+0x8da1a744>
 1c0:	2f 70 6c 61 	unknown
 1c4:	74 66 6f 72 	call  d199bf8c <RAM_END+0xd189bf8c>
 1c8:	6d 2f 74 6f 	call  b4bdd384 <RAM_END+0xb4add384>
 1cc:	70 63 65 6c 	call  c18d977c <RAM_END+0xc17d977c>
 1d0:	6c 73 2f 63 	call  b1ccbf5c <RAM_END+0xb1bcbf5c>
 1d4:	6f 6d 6d 6f 	call  bdb5b790 <RAM_END+0xbda5b790>
 1d8:	6e 00 2f 72 	call  b800bfa0 <RAM_END+0xb7f0bfa0>
 1dc:	6f 6f 74 2f 	call  bdbdd298 <RAM_END+0xbdadd298>
 1e0:	73 6f 63 6c 	call  cdbd8f90 <RAM_END+0xcdad8f90>
 1e4:	69 62 2f 73 	call  a588bfb0 <RAM_END+0xa578bfb0>
 1e8:	6f 63 6c 69 	call  bd8db38c <RAM_END+0xbd7db38c>
 1ec:	62 2f 6d 6f 	call  88bdb7a8 <RAM_END+0x88adb7a8>
 1f0:	64 75 6c 65 	call  91d5b384 <RAM_END+0x91c5b384>
 1f4:	2f 63 6f 6e 	unknown
 1f8:	6e 65 63 74 	call  b9958fc8 <RAM_END+0xb9858fc8>
 1fc:	69 76 69 74 	call  a5d9a7cc <RAM_END+0xa5c9a7cc>
 200:	79 5f 63 6f 	call  e57d8fbc <RAM_END+0xe56d8fbc>
 204:	6d 70 6f 6e 	call  b5c1bfbc <RAM_END+0xb5b1bfbc>
 208:	65 6e 74 2f 	call  95b9d2c4 <RAM_END+0x95a9d2c4>
 20c:	76 63 69 5f 	call  d98da788 <RAM_END+0xd97da788>
 210:	6d 75 6c 74 	call  b5d5b3e0 <RAM_END+0xb5c5b3e0>
 214:	69 5f 74 74 	call  a57dd3e4 <RAM_END+0xa56dd3e4>
 218:	79 2f 69 6e 	call  e4bda7d0 <RAM_END+0xe4ada7d0>
 21c:	63 6c 75 64 	call  8db1d7ac <RAM_END+0x8da1d7ac>
 220:	65 2f 73 6f 	call  94bdcfdc <RAM_END+0x94adcfdc>
 224:	63 6c 69 62 	call  8db1a7ac <RAM_END+0x8da1a7ac>
 228:	00 00 73 79 	unimp  0x7379
 22c:	73 74 65 6d 	call  cdd197e0 <RAM_END+0xcdc197e0>
 230:	2e 63 00 01 	unknown
 234:	00 00 73 79 	unimp  0x7379
 238:	73 74 65 6d 	call  cdd197ec <RAM_END+0xcdc197ec>
 23c:	5f 73 70 61 	call  7dcdc3c0 <RAM_END+0x7dbdc3c0>
 240:	72 63 2e 68 	call  c98cbbe0 <RAM_END+0xc97cbbe0>
 244:	00 01 00 00 	unimp  0x10000
 248:	73 79 73 74 	call  cde5d018 <RAM_END+0xcdd5d018>
 24c:	65 6d 2e 68 	call  95b4bbec <RAM_END+0x95a4bbec>
 250:	00 01 00 00 	unimp  0x10000
 254:	73 6f 63 6c 	call  cdbd9004 <RAM_END+0xcdad9004>
 258:	69 62 5f 69 	call  a5897ffc <RAM_END+0xa5797ffc>
 25c:	6f 2e 68 00 	call  bcb9a25c <RAM_END+0xbca9a25c>
 260:	01 00 00 73 	sethi  %hi(0x1cc00), %g0
 264:	74 64 69 6e 	call  d191a81c <RAM_END+0xd181a81c>
 268:	74 2e 68 00 	call  d0b9a268 <RAM_END+0xd0a9a268>
 26c:	01 00 00 74 	sethi  %hi(0x1d000), %g0
 270:	74 79 2e 68 	call  d1e4bc10 <RAM_END+0xd1d4bc10>
 274:	00 02 00 00 	unimp  0x20000
 278:	00 00 05 02 	unimp  0x502
 27c:	00 00 13 d0 	unimp  0x13d0
 280:	03 22 01 04 	sethi  %hi(0x88041000), %g1
 284:	02 03 2e 01 	unknown
 288:	04 03 03 24 	unknown
 28c:	20 04 04 03 	unknown
 290:	68 20 04 03 	call  a080129c <RAM_END+0xa070129c>
 294:	03 18 20 04 	sethi  %hi(0x60801000), %g1
 298:	04 03 69 20 	unknown
 29c:	04 01 03 47 	unknown
 2a0:	01 32 04 02 	sethi  %hi(0xc8100800), %g0
 2a4:	03 28 01 04 	sethi  %hi(0xa0041000), %g1
 2a8:	04 03 15 20 	unknown
 2ac:	04 01 03 45 	unknown
 2b0:	01 04 04 03 	sethi  %hi(0x10100c00), %g0
 2b4:	39 20 23 04 	sethi  %hi(0x808c1000), %i4
 2b8:	01 03 44 20 	sethi  %hi(0xd108000), %g0
 2bc:	31 13 59 04 	sethi  %hi(0x4d641000), %i0
 2c0:	02 03 21 20 	unknown
 2c4:	04 04 03 0c 	unknown
 2c8:	20 04 01 03 	unknown
 2cc:	53 20 04 03 	call  4c8012d8 <RAM_END+0x4c7012d8>
 2d0:	03 c5 00 20 	cb123  140350 <RAM_END+0x40350>
 2d4:	04 04 03 69 	unknown
 2d8:	20 04 01 03 	unknown
 2dc:	51 01 04 02 	call  440412e4 <RAM_END+0x43f412e4>
 2e0:	03 22 58 04 	sethi  %hi(0x89601000), %g1
 2e4:	04 03 0c 20 	unknown
 2e8:	4b 04 01 03 	call  2c1006f4 <RAM_END+0x2c0006f4>
 2ec:	55 01 31 21 	call  5404c770 <RAM_END+0x53f4c770>
 2f0:	04 02 03 1a 	unknown
 2f4:	90 04 01 03 	unknown
 2f8:	68 20 04 04 	call  a0801308 <RAM_END+0xa0701308>
 2fc:	03 24 20 04 	sethi  %hi(0x90801000), %g1
 300:	01 03 5c 20 	sethi  %hi(0xd708000), %g0
 304:	04 03 03 3c 	unknown
 308:	2e 04 01 03 	unknown
 30c:	44 20 04 03 	call  10801318 <RAM_END+0x10701318>
 310:	03 3c 2e 04 	sethi  %hi(0xf0b81000), %g1
 314:	04 03 69 20 	unknown
 318:	04 01 03 5c 	unknown
 31c:	01 2c 04 02 	sethi  %hi(0xb0100800), %g0
 320:	03 19 82 04 	sethi  %hi(0x66081000), %g1
 324:	01 03 68 20 	sethi  %hi(0xda08000), %g0
 328:	04 04 03 24 	unknown
 32c:	20 04 01 03 	unknown
 330:	5c 20 04 03 	call  7080133c <RAM_END+0x7070133c>
 334:	03 3c 2e 04 	sethi  %hi(0xf0b81000), %g1
 338:	01 03 44 20 	sethi  %hi(0xd108000), %g0
 33c:	04 03 03 3c 	unknown
 340:	2e 04 04 03 	unknown
 344:	69 20 04 01 	call  a4801348 <RAM_END+0xa4701348>
 348:	03 5c 01 31 	unknown
 34c:	03 14 01 31 	sethi  %hi(0x5004c400), %g1
 350:	03 14 01 33 	sethi  %hi(0x5004cc00), %g1
 354:	13 21 34 21 	sethi  %hi(0x84d08400), %o1
 358:	1f 21 1f 2f 	sethi  %hi(0x847cbc00), %o7
 35c:	3d 33 2b 4b 	sethi  %hi(0xccad2c00), %fp
 360:	43 13 21 33 	call  c4c882c <RAM_END+0xc3c882c>
 364:	21 1f 21 1f 	sethi  %hi(0x7c847c00), %l0
 368:	21 3d 33 2b 	sethi  %hi(0xf4ccac00), %l0
 36c:	4b 43 13 21 	call  2d0c4ff0 <RAM_END+0x2cfc4ff0>
 370:	31 04 02 03 	sethi  %hi(0x10080c00), %i0
 374:	8c 7f 01 04 	unknown
 378:	01 03 95 01 	sethi  %hi(0xe540400), %g0
 37c:	4a 31 04 02 	call  28c41384 <RAM_END+0x28b41384>
 380:	03 86 7f 01 	fbne  19ff84 <RAM_END+0x9ff84>
 384:	04 01 03 8e 	unknown
 388:	01 4a 32 22 	unknown
 38c:	67 59 03 d7 	call  9d6412e8 <RAM_END+0x9d5412e8>
 390:	00 4a 01 03 	unknown
 394:	5e 20 03 27 	call  78801030 <RAM_END+0x78701030>
 398:	20 03 73 20 	unknown
 39c:	03 1b 20 31 	sethi  %hi(0x6c80c400), %g1
 3a0:	00 02 04 01 	unimp  0x20401
 3a4:	03 48 01 00 	unknown
 3a8:	02 04 01 03 	unknown
 3ac:	3c 20 03 5e 	unknown
 3b0:	3c 03 c9 00 	unknown
 3b4:	20 31 16 31 	unknown
 3b8:	03 0c 01 02 	sethi  %hi(0x30040800), %g1
 3bc:	02 00 01 01 	unknown
 3c0:	00 00 02 be 	unimp  0x2be
 3c4:	00 02 00 00 	unimp  0x20000
 3c8:	01 26 04 01 	sethi  %hi(0x98100400), %g0
 3cc:	fb 0e 0d 00 	unknown
 3d0:	01 01 01 01 	sethi  %hi(0x4040400), %g0
 3d4:	00 00 00 01 	unimp  0x1
 3d8:	00 00 01 2f 	unimp  0x12f
 3dc:	72 6f 6f 74 	call  c9bdc1ac <RAM_END+0xc9adc1ac>
 3e0:	2f 73 6f 63 	unknown
 3e4:	6c 69 62 2f 	call  b1a58ca0 <RAM_END+0xb1958ca0>
 3e8:	73 6f 63 6c 	call  cdbd9198 <RAM_END+0xcdad9198>
 3ec:	69 62 2f 70 	call  a588c1ac <RAM_END+0xa578c1ac>
 3f0:	6c 61 74 66 	call  b185d588 <RAM_END+0xb175d588>
 3f4:	6f 72 6d 2f 	call  bdc9b8b0 <RAM_END+0xbdb9b8b0>
 3f8:	74 6f 70 63 	call  d1bdc584 <RAM_END+0xd1adc584>
 3fc:	65 6c 6c 73 	call  95b1b5c8 <RAM_END+0x95a1b5c8>
 400:	2f 63 6f 6d 	unknown
 404:	6d 6f 6e 00 	call  b5bdbc04 <RAM_END+0xb5adbc04>
 408:	2f 6f 70 74 	unknown
 40c:	2f 63 72 6f 	unknown
 410:	73 73 62 75 	call  cdcd8de4 <RAM_END+0xcdbd8de4>
 414:	69 6c 64 2f 	call  a5b194d0 <RAM_END+0xa5a194d0>
 418:	73 70 61 72 	call  cdc189e0 <RAM_END+0xcdb189e0>
 41c:	63 2f 6c 69 	call  8cbdb5c0 <RAM_END+0x8cadb5c0>
 420:	62 2f 67 63 	call  88bda1ac <RAM_END+0x88ada1ac>
 424:	63 2f 73 70 	call  8cbdd1e4 <RAM_END+0x8cadd1e4>
 428:	61 72 63 2d 	call  85c990dc <RAM_END+0x85b990dc>
 42c:	75 6e 6b 6e 	call  d5b9b1e4 <RAM_END+0xd5a9b1e4>
 430:	6f 77 6e 2d 	call  bdddbce4 <RAM_END+0xbdcdbce4>
 434:	65 6c 66 2f 	call  95b19cf0 <RAM_END+0x95a19cf0>
 438:	34 2e 35 2e 	unknown
 43c:	32 2f 69 6e 	unknown
 440:	63 6c 75 64 	call  8db1d9d0 <RAM_END+0x8da1d9d0>
 444:	65 00 2f 72 	call  9400c20c <RAM_END+0x93f0c20c>
 448:	6f 6f 74 2f 	call  bdbdd504 <RAM_END+0xbdadd504>
 44c:	73 6f 63 6c 	call  cdbd91fc <RAM_END+0xcdad91fc>
 450:	69 62 2f 73 	call  a588c21c <RAM_END+0xa578c21c>
 454:	6f 63 6c 69 	call  bd8db5f8 <RAM_END+0xbd7db5f8>
 458:	62 2f 6d 6f 	call  88bdba14 <RAM_END+0x88adba14>
 45c:	64 75 6c 65 	call  91d5b5f0 <RAM_END+0x91c5b5f0>
 460:	2f 63 6f 6e 	unknown
 464:	6e 65 63 74 	call  b9959234 <RAM_END+0xb9859234>
 468:	69 76 69 74 	call  a5d9aa38 <RAM_END+0xa5c9aa38>
 46c:	79 5f 63 6f 	call  e57d9228 <RAM_END+0xe56d9228>
 470:	6d 70 6f 6e 	call  b5c1c228 <RAM_END+0xb5b1c228>
 474:	65 6e 74 2f 	call  95b9d530 <RAM_END+0x95a9d530>
 478:	76 63 69 5f 	call  d98da9f4 <RAM_END+0xd97da9f4>
 47c:	6d 75 6c 74 	call  b5d5b64c <RAM_END+0xb5c5b64c>
 480:	69 5f 74 74 	call  a57dd650 <RAM_END+0xa56dd650>
 484:	79 2f 69 6e 	call  e4bdaa3c <RAM_END+0xe4adaa3c>
 488:	63 6c 75 64 	call  8db1da18 <RAM_END+0x8da1da18>
 48c:	65 2f 73 6f 	call  94bdd248 <RAM_END+0x94add248>
 490:	63 6c 69 62 	call  8db1aa18 <RAM_END+0x8da1aa18>
 494:	00 00 73 74 	unimp  0x7374
 498:	64 69 6f 2e 	call  91a5c150 <RAM_END+0x9195c150>
 49c:	63 00 01 00 	call  8c00089c <RAM_END+0x8bf0089c>
 4a0:	00 73 6f 63 	unknown
 4a4:	6c 69 62 5f 	call  b1a58e20 <RAM_END+0xb1958e20>
 4a8:	69 6f 2e 68 	call  a5bcbe48 <RAM_END+0xa5acbe48>
 4ac:	00 01 00 00 	unimp  0x10000
 4b0:	73 79 73 74 	call  cde5d280 <RAM_END+0xcdd5d280>
 4b4:	65 6d 5f 73 	call  95b58280 <RAM_END+0x95a58280>
 4b8:	70 61 72 63 	call  c185ce44 <RAM_END+0xc175ce44>
 4bc:	2e 68 00 01 	unknown
 4c0:	00 00 73 79 	unimp  0x7379
 4c4:	73 74 65 6d 	call  cdd19a78 <RAM_END+0xcdc19a78>
 4c8:	2e 68 00 01 	unknown
 4cc:	00 00 73 74 	unimp  0x7374
 4d0:	64 61 72 67 	call  9185ce6c <RAM_END+0x9175ce6c>
 4d4:	2e 68 00 02 	unknown
 4d8:	00 00 73 74 	unimp  0x7374
 4dc:	64 69 6e 74 	call  91a5beac <RAM_END+0x9195beac>
 4e0:	2e 68 00 01 	unknown
 4e4:	00 00 74 74 	unimp  0x7474
 4e8:	79 2e 68 00 	call  e4b9a4e8 <RAM_END+0xe4a9a4e8>
 4ec:	03 00 00 00 	sethi  %hi(0), %g1
 4f0:	00 05 02 00 	unimp  0x50200
 4f4:	00 17 e0 03 	unimp  0x17e003
 4f8:	20 01 03 0d 	unknown
 4fc:	20 30 3f 34 	unknown
 500:	00 02 04 01 	unimp  0x20401
 504:	13 77 03 27 	unknown
 508:	2e 04 02 03 	unknown
 50c:	79 20 04 01 	call  e4801510 <RAM_END+0xe4701510>
 510:	27 25 71 03 	sethi  %hi(0x95c40c00), %l3
 514:	0d 20 03 d0 	sethi  %hi(0x800f4000), %g6
 518:	00 20 21 03 	unimp  0xffe02103
 51c:	9f 7f 20 03 	unknown
 520:	ca 00 20 04 	ld  [ 4 ], %g5
 524:	02 03 b0 7f 	unknown
 528:	20 04 01 00 	unknown
 52c:	02 04 01 03 	unknown
 530:	f4 00 2e 00 	ld  [ 0xe00 ], %i2
 534:	02 04 01 03 	unknown
 538:	9a 7f 20 00 	sdiv  %i4, 0, %o5
 53c:	02 04 01 59 	unknown
 540:	35 03 79 2e 	sethi  %hi(0xde4b800), %i2
 544:	3d 04 03 03 	sethi  %hi(0x100c0c00), %fp
 548:	64 20 04 02 	call  90801550 <RAM_END+0x90701550>
 54c:	03 0c 20 04 	sethi  %hi(0x30801000), %g1
 550:	01 03 10 20 	sethi  %hi(0xc408000), %g0
 554:	04 04 28 04 	unknown
 558:	02 03 69 20 	unknown
 55c:	04 01 03 0e 	unknown
 560:	01 6a 03 e6 	unknown
 564:	00 3c 03 9c 	unimp  0xfffc039c
 568:	7f 2e 21 04 	call  fcb88978 <RAM_END+0xfca88978>
 56c:	03 03 5e 66 	sethi  %hi(0xd799800), %g1
 570:	04 02 03 0c 	unknown
 574:	20 04 04 03 	unknown
 578:	18 20 04 02 	unknown
 57c:	03 69 20 04 	unknown
 580:	01 03 eb 00 	sethi  %hi(0xfac0000), %g0
 584:	01 28 03 a2 	sethi  %hi(0xa00e8800), %g0
 588:	7f 2e 03 26 	call  fcb81220 <RAM_END+0xfca81220>
 58c:	4a 22 1e 30 	call  28887e4c <RAM_END+0x28787e4c>
 590:	1e 00 02 04 	unknown
 594:	01 24 00 02 	sethi  %hi(0x90000800), %g0
 598:	04 01 bc 03 	unknown
 59c:	2d 3c 4b 04 	sethi  %hi(0xf12c1000), %l6
 5a0:	03 03 84 7f 	sethi  %hi(0xe11fc00), %g1
 5a4:	20 04 02 03 	unknown
 5a8:	0c 20 04 01 	unknown
 5ac:	03 f0 00 20 	cb123  ffc0062c <RAM_END+0xffb0062c>
 5b0:	04 04 03 a8 	unknown
 5b4:	7f 20 04 02 	call  fc8015bc <RAM_END+0xfc7015bc>
 5b8:	03 69 20 04 	unknown
 5bc:	01 03 ee 00 	sethi  %hi(0xfb80000), %g0
 5c0:	01 22 1e 4f 	sethi  %hi(0x88793c00), %g0
 5c4:	03 5a 2e 3d 	unknown
 5c8:	03 76 58 22 	unknown
 5cc:	1e 30 1e 00 	unknown
 5d0:	02 04 01 24 	unknown
 5d4:	00 02 04 01 	unimp  0x20401
 5d8:	3d 00 02 04 	sethi  %hi(0x81000), %fp
 5dc:	01 21 03 63 	sethi  %hi(0x840d8c00), %g0
 5e0:	58 3d 42 00 	call  60f50de0 <RAM_END+0x60e50de0>
 5e4:	02 04 01 30 	unknown
 5e8:	00 02 04 01 	unimp  0x20401
 5ec:	bc 03 36 3c 	add  %o4, -2500, %fp
 5f0:	03 ba 7f 2e 	fbne  ffea02a8 <RAM_END+0xffda02a8>
 5f4:	04 03 03 4b 	unknown
 5f8:	4a 04 02 03 	call  28100e04 <RAM_END+0x28000e04>
 5fc:	0c 20 04 04 	unknown
 600:	03 18 20 04 	sethi  %hi(0x60801000), %g1
 604:	02 03 69 20 	unknown
 608:	04 01 03 29 	unknown
 60c:	01 03 ca 00 	sethi  %hi(0xf280000), %g0
 610:	20 03 61 2e 	unknown
 614:	3f 1d 22 31 	sethi  %hi(0x7488c400), %i7
 618:	2f 3d 21 2f 	sethi  %hi(0xf484bc00), %l7
 61c:	22 3d 00 02 	unknown
 620:	04 01 59 03 	unknown
 624:	a4 7f 3c 03 	sdiv  %i4, -1021, %l2
 628:	dd 00 3c 1f 	ld  [ -993 ], %f14
 62c:	03 a4 7f 3c 	fbne  ff92031c <RAM_END+0xff82031c>
 630:	03 dc 00 2e 	cb123  7006e8 <RAM_END+0x6006e8>
 634:	24 2f 04 03 	unknown
 638:	03 8d 7f 3c 	fbne  360328 <RAM_END+0x260328>
 63c:	04 02 03 0c 	unknown
 640:	20 2f 04 01 	unknown
 644:	03 25 01 03 	sethi  %hi(0x94040c00), %g1
 648:	ce 00 20 03 	ld  [ 3 ], %g7
 64c:	bc 7f 2e 04 	sdiv  %i4, 0xe04, %fp
 650:	03 03 44 20 	sethi  %hi(0xd108000), %g1
 654:	04 02 03 0c 	unknown
 658:	20 2f 04 01 	unknown
 65c:	03 31 01 03 	sethi  %hi(0xc4040c00), %g1
 660:	1d 2e 21 03 	sethi  %hi(0xb8840c00), %sp
 664:	32 2e 13 4b 	unknown
 668:	21 49 21 3a 	unknown
 66c:	50 21 4e 16 	call  40853ec4 <RAM_END+0x40753ec4>
 670:	00 02 04 01 	unimp  0x20401
 674:	06 3c 06 2f 	unknown
 678:	60 54 4c 64 	call  81513808 <RAM_END+0x81413808>
 67c:	6a 02 02 00 	call  a8080e7c <RAM_END+0xa7f80e7c>
 680:	01 01 00 00 	sethi  %hi(0x4000000), %g0
 684:	00 b0 00 02 	bn  ffc0068c <RAM_END+0xffb0068c>
 688:	00 00 00 58 	unimp  0x58
 68c:	04 01 fb 0e 	unknown
 690:	0d 00 01 01 	sethi  %hi(0x40400), %g6
 694:	01 01 00 00 	sethi  %hi(0x4000000), %g0
 698:	00 01 00 00 	unimp  0x10000
 69c:	01 2f 72 6f 	sethi  %hi(0xbdc9bc00), %g0
 6a0:	6f 74 2f 73 	call  bdd0c46c <RAM_END+0xbdc0c46c>
 6a4:	6f 63 6c 69 	call  bd8db848 <RAM_END+0xbd7db848>
 6a8:	62 2f 73 6f 	call  88bdd464 <RAM_END+0x88add464>
 6ac:	63 6c 69 62 	call  8db1ac34 <RAM_END+0x8da1ac34>
 6b0:	2f 70 6c 61 	unknown
 6b4:	74 66 6f 72 	call  d199c47c <RAM_END+0xd189c47c>
 6b8:	6d 2f 74 6f 	call  b4bdd874 <RAM_END+0xb4add874>
 6bc:	70 63 65 6c 	call  c18d9c6c <RAM_END+0xc17d9c6c>
 6c0:	6c 73 2f 63 	call  b1ccc44c <RAM_END+0xb1bcc44c>
 6c4:	6f 6d 6d 6f 	call  bdb5bc80 <RAM_END+0xbda5bc80>
 6c8:	6e 00 00 73 	call  b8000894 <RAM_END+0xb7f00894>
 6cc:	74 64 6c 69 	call  d191b870 <RAM_END+0xd181b870>
 6d0:	62 2e 63 00 	call  88b992d0 <RAM_END+0x88a992d0>
 6d4:	01 00 00 73 	sethi  %hi(0x1cc00), %g0
 6d8:	74 64 69 6e 	call  d191ac90 <RAM_END+0xd181ac90>
 6dc:	74 2e 68 00 	call  d0b9a6dc <RAM_END+0xd0a9a6dc>
 6e0:	01 00 00 00 	nop 
 6e4:	00 05 02 00 	unimp  0x50200
 6e8:	00 1c 64 03 	unimp  0x1c6403
 6ec:	30 01 14 5d 	unknown
 6f0:	03 75 20 03 	unknown
 6f4:	0b 2e 03 75 	sethi  %hi(0xb80dd400), %g5
 6f8:	2e 03 09 4a 	unknown
 6fc:	22 03 75 20 	unknown
 700:	03 0b 2e 31 	sethi  %hi(0x2cb8c400), %g1
 704:	13 31 03 0a 	sethi  %hi(0xc40c2800), %o1
 708:	01 28 31 03 	sethi  %hi(0xa0c40c00), %g0
 70c:	75 01 03 19 	call  d4041370 <RAM_END+0xd3f41370>
 710:	2e 03 67 01 	unknown
 714:	03 1e 2e 13 	sethi  %hi(0x78b84c00), %g1
 718:	22 00 02 04 	unknown
 71c:	01 06 3c 00 	sethi  %hi(0x18f00000), %g0
 720:	02 04 01 06 	unknown
 724:	3d 06 3c 06 	sethi  %hi(0x18f01800), %fp
 728:	21 3b 45 03 	sethi  %hi(0xed140c00), %l0
 72c:	0d 66 3d 3b 	unknown
 730:	40 02 02 00 	call  80f30 <ISR_STACK_SIZE+0x7cf30>
 734:	Address 0x00000734 is out of bounds.


Disassembly of section .debug_frame:

00000000 <.debug_frame>:
   0:	00 00 00 0c 	unimp  0xc
   4:	ff ff ff ff 	unknown
   8:	01 00 04 7c 	sethi  %hi(0x11f000), %g0
   c:	0f 0c 0e 00 	sethi  %hi(0x30380000), %g7
  10:	00 00 00 14 	unimp  0x14
  14:	00 00 00 00 	unimp  0
  18:	00 00 12 98 	unimp  0x1298
  1c:	00 00 00 60 	unimp  0x60
  20:	41 0d 1e 2d 	call  43478d4 <RAM_END+0x42478d4>
  24:	41 09 0f 1f 	call  4243ca0 <RAM_END+0x4143ca0>
  28:	00 00 00 14 	unimp  0x14
  2c:	00 00 00 00 	unimp  0
  30:	00 00 12 f8 	unimp  0x12f8
  34:	00 00 00 d8 	unimp  0xd8
  38:	41 0d 1e 2d 	call  43478ec <RAM_END+0x42478ec>
  3c:	43 09 0f 1f 	call  c243cb8 <RAM_END+0xc143cb8>
  40:	00 00 00 0c 	unimp  0xc
  44:	ff ff ff ff 	unknown
  48:	01 00 04 7c 	sethi  %hi(0x11f000), %g0
  4c:	0f 0c 0e 00 	sethi  %hi(0x30380000), %g7
  50:	00 00 00 0c 	unimp  0xc
  54:	00 00 00 40 	unimp  0x40
  58:	00 00 13 d0 	unimp  0x13d0
  5c:	00 00 00 18 	unimp  0x18
  60:	00 00 00 0c 	unimp  0xc
  64:	00 00 00 40 	unimp  0x40
  68:	00 00 13 e8 	unimp  0x13e8
  6c:	00 00 00 18 	unimp  0x18
  70:	00 00 00 0c 	unimp  0xc
  74:	00 00 00 40 	unimp  0x40
  78:	00 00 14 00 	unimp  0x1400
  7c:	00 00 00 58 	unimp  0x58
  80:	00 00 00 14 	unimp  0x14
  84:	00 00 00 40 	unimp  0x40
  88:	00 00 14 58 	unimp  0x1458
  8c:	00 00 00 a0 	unimp  0xa0
  90:	41 0d 1e 2d 	call  4347944 <RAM_END+0x4247944>
  94:	43 09 0f 1f 	call  c243d10 <RAM_END+0xc143d10>
  98:	00 00 00 0c 	unimp  0xc
  9c:	00 00 00 40 	unimp  0x40
  a0:	00 00 14 f8 	unimp  0x14f8
  a4:	00 00 00 08 	unimp  0x8
  a8:	00 00 00 0c 	unimp  0xc
  ac:	00 00 00 40 	unimp  0x40
  b0:	00 00 15 00 	unimp  0x1500
  b4:	00 00 00 08 	unimp  0x8
  b8:	00 00 00 0c 	unimp  0xc
  bc:	00 00 00 40 	unimp  0x40
  c0:	00 00 15 08 	unimp  0x1508
  c4:	00 00 00 0c 	unimp  0xc
  c8:	00 00 00 14 	unimp  0x14
  cc:	00 00 00 40 	unimp  0x40
  d0:	00 00 15 14 	unimp  0x1514
  d4:	00 00 00 50 	unimp  0x50
  d8:	41 0d 1e 2d 	call  434798c <RAM_END+0x424798c>
  dc:	48 09 0f 1f 	call  20243d58 <RAM_END+0x20143d58>
  e0:	00 00 00 0c 	unimp  0xc
  e4:	00 00 00 40 	unimp  0x40
  e8:	00 00 15 64 	unimp  0x1564
  ec:	00 00 00 0c 	unimp  0xc
  f0:	00 00 00 14 	unimp  0x14
  f4:	00 00 00 40 	unimp  0x40
  f8:	00 00 15 70 	unimp  0x1570
  fc:	00 00 00 4c 	unimp  0x4c
 100:	41 0d 1e 2d 	call  43479b4 <RAM_END+0x42479b4>
 104:	47 09 0f 1f 	call  1c243d80 <RAM_END+0x1c143d80>
 108:	00 00 00 0c 	unimp  0xc
 10c:	00 00 00 40 	unimp  0x40
 110:	00 00 15 bc 	unimp  0x15bc
 114:	00 00 00 0c 	unimp  0xc
 118:	00 00 00 0c 	unimp  0xc
 11c:	00 00 00 40 	unimp  0x40
 120:	00 00 15 c8 	unimp  0x15c8
 124:	00 00 00 18 	unimp  0x18
 128:	00 00 00 0c 	unimp  0xc
 12c:	00 00 00 40 	unimp  0x40
 130:	00 00 15 e0 	unimp  0x15e0
 134:	00 00 00 18 	unimp  0x18
 138:	00 00 00 14 	unimp  0x14
 13c:	00 00 00 40 	unimp  0x40
 140:	00 00 15 f8 	unimp  0x15f8
 144:	00 00 00 40 	unimp  0x40
 148:	41 0d 1e 2d 	call  43479fc <RAM_END+0x42479fc>
 14c:	44 09 0f 1f 	call  10243dc8 <RAM_END+0x10143dc8>
 150:	00 00 00 0c 	unimp  0xc
 154:	00 00 00 40 	unimp  0x40
 158:	00 00 16 38 	unimp  0x1638
 15c:	00 00 00 18 	unimp  0x18
 160:	00 00 00 0c 	unimp  0xc
 164:	00 00 00 40 	unimp  0x40
 168:	00 00 16 50 	unimp  0x1650
 16c:	00 00 00 1c 	unimp  0x1c
 170:	00 00 00 0c 	unimp  0xc
 174:	00 00 00 40 	unimp  0x40
 178:	00 00 16 6c 	unimp  0x166c
 17c:	00 00 00 08 	unimp  0x8
 180:	00 00 00 0c 	unimp  0xc
 184:	00 00 00 40 	unimp  0x40
 188:	00 00 16 74 	unimp  0x1674
 18c:	00 00 00 08 	unimp  0x8
 190:	00 00 00 0c 	unimp  0xc
 194:	ff ff ff ff 	unknown
 198:	01 00 04 7c 	sethi  %hi(0x11f000), %g0
 19c:	0f 0c 0e 00 	sethi  %hi(0x30380000), %g7
 1a0:	00 00 00 14 	unimp  0x14
 1a4:	00 00 01 90 	unimp  0x190
 1a8:	00 00 17 e0 	unimp  0x17e0
 1ac:	00 00 00 20 	unimp  0x20
 1b0:	41 0d 1e 2d 	call  4347a64 <RAM_END+0x4247a64>
 1b4:	09 0f 1f 00 	sethi  %hi(0x3c7c0000), %g4
 1b8:	00 00 00 0c 	unimp  0xc
 1bc:	00 00 01 90 	unimp  0x190
 1c0:	00 00 18 00 	unimp  0x1800
 1c4:	00 00 00 24 	unimp  0x24
 1c8:	00 00 00 14 	unimp  0x14
 1cc:	00 00 01 90 	unimp  0x190
 1d0:	00 00 18 24 	unimp  0x1824
 1d4:	00 00 03 64 	unimp  0x364
 1d8:	41 0d 1e 2d 	call  4347a8c <RAM_END+0x4247a8c>
 1dc:	4e 09 0f 1f 	call  38243e58 <RAM_END+0x38143e58>
 1e0:	00 00 00 0c 	unimp  0xc
 1e4:	00 00 01 90 	unimp  0x190
 1e8:	00 00 1b 88 	unimp  0x1b88
 1ec:	00 00 00 58 	unimp  0x58
 1f0:	00 00 00 0c 	unimp  0xc
 1f4:	00 00 01 90 	unimp  0x190
 1f8:	00 00 1b e0 	unimp  0x1be0
 1fc:	00 00 00 84 	unimp  0x84
 200:	00 00 00 0c 	unimp  0xc
 204:	ff ff ff ff 	unknown
 208:	01 00 04 7c 	sethi  %hi(0x11f000), %g0
 20c:	0f 0c 0e 00 	sethi  %hi(0x30380000), %g7
 210:	00 00 00 0c 	unimp  0xc
 214:	00 00 02 00 	unimp  0x200
 218:	00 00 1c 64 	unimp  0x1c64
 21c:	00 00 00 50 	unimp  0x50
 220:	00 00 00 0c 	unimp  0xc
 224:	00 00 02 00 	unimp  0x200
 228:	00 00 1c b4 	unimp  0x1cb4
 22c:	00 00 00 08 	unimp  0x8
 230:	00 00 00 0c 	unimp  0xc
 234:	00 00 02 00 	unimp  0x200
 238:	00 00 1c bc 	unimp  0x1cbc
 23c:	00 00 00 0c 	unimp  0xc
 240:	00 00 00 0c 	unimp  0xc
 244:	00 00 02 00 	unimp  0x200
 248:	00 00 1c c8 	unimp  0x1cc8
 24c:	00 00 00 08 	unimp  0x8
 250:	00 00 00 0c 	unimp  0xc
 254:	00 00 02 00 	unimp  0x200
 258:	00 00 1c d0 	unimp  0x1cd0
 25c:	00 00 00 08 	unimp  0x8
 260:	00 00 00 0c 	unimp  0xc
 264:	00 00 02 00 	unimp  0x200
 268:	00 00 1c d8 	unimp  0x1cd8
 26c:	00 00 00 8c 	unimp  0x8c

Disassembly of section .debug_str:

00000000 <.debug_str>:
   0:	73 69 7a 65 	call  cda5e994 <RAM_END+0xcd95e994>
   4:	5f 74 00 70 	call  7dd001c4 <RAM_END+0x7dc001c4>
   8:	72 6f 63 6e 	call  c9bd8dc0 <RAM_END+0xc9ad8dc0>
   c:	75 6d 00 47 	call  d5b40128 <RAM_END+0xd5a40128>
  10:	4e 55 20 43 	call  3954811c <RAM_END+0x3944811c>
  14:	20 34 2e 35 	unknown
  18:	2e 32 00 54 	unknown
  1c:	49 4d 45 52 	call  25351564 <RAM_END+0x25251564>
  20:	5f 53 50 41 	call  7d4d4124 <RAM_END+0x7d3d4124>
  24:	4e 00 63 6f 	call  38018de0 <RAM_END+0x37f18de0>
  28:	75 6e 74 00 	call  d5b9d028 <RAM_END+0xd5a9d028>
  2c:	54 49 4d 45 	call  51253540 <RAM_END+0x51153540>
  30:	52 5f 52 55 	call  497d4984 <RAM_END+0x496d4984>
  34:	4e 4e 49 4e 	call  3939256c <RAM_END+0x3929256c>
  38:	47 00 73 6f 	call  1c01cdf4 <RAM_END+0x1bf1cdf4>
  3c:	63 6c 69 62 	call  8db1a5c4 <RAM_END+0x8da1a5c4>
  40:	5f 69 6f 5f 	call  7da5bdbc <RAM_END+0x7d95bdbc>
  44:	67 65 74 00 	call  9d95d044 <RAM_END+0x9d85d044>
  48:	63 6f 6d 70 	call  8dbdb608 <RAM_END+0x8dadb608>
  4c:	5f 62 61 73 	call  7d898618 <RAM_END+0x7d798618>
  50:	65 00 61 64 	call  940185e0 <RAM_END+0x93f185e0>
  54:	64 72 00 73 	call  91c80220 <RAM_END+0x91b80220>
  58:	6f 63 6c 69 	call  bd8db1fc <RAM_END+0xbd7db1fc>
  5c:	62 5f 69 6f 	call  897da618 <RAM_END+0x896da618>
  60:	5f 73 65 74 	call  7dcd9630 <RAM_END+0x7dbd9630>
  64:	00 75 6e 73 	unknown
  68:	69 67 6e 65 	call  a59db9fc <RAM_END+0xa58db9fc>
  6c:	64 20 63 68 	call  90818e0c <RAM_END+0x90718e0c>
  70:	61 72 00 73 	call  85c8023c <RAM_END+0x85b8023c>
  74:	68 6f 72 74 	call  a1bdca44 <RAM_END+0xa1adca44>
  78:	20 75 6e 73 	unknown
  7c:	69 67 6e 65 	call  a59dba10 <RAM_END+0xa58dba10>
  80:	64 20 69 6e 	call  9081a638 <RAM_END+0x9071a638>
  84:	74 00 69 6e 	call  d001a63c <RAM_END+0xcff1a63c>
  88:	74 65 72 72 	call  d195ca50 <RAM_END+0xd185ca50>
  8c:	75 70 74 5f 	call  d5c1d208 <RAM_END+0xd5b1d208>
  90:	63 6f 75 6e 	call  8dbdd648 <RAM_END+0x8dadd648>
  94:	74 65 72 00 	call  d195c894 <RAM_END+0xd185c894>
  98:	54 49 4d 45 	call  512535ac <RAM_END+0x511535ac>
  9c:	52 5f 49 52 	call  497d25e4 <RAM_END+0x496d25e4>
  a0:	51 5f 45 4e 	call  457d15d8 <RAM_END+0x456d15d8>
  a4:	41 42 4c 45 	call  50931b8 <RAM_END+0x4f931b8>
  a8:	44 00 69 72 	call  1001a670 <RAM_END+0xff1a670>
  ac:	71 5f 73 65 	call  c57dce40 <RAM_END+0xc56dce40>
  b0:	74 5f 70 69 	call  d17dc254 <RAM_END+0xd16dc254>
  b4:	6c 00 6d 61 	call  b001b638 <RAM_END+0xaff1b638>
  b8:	69 6e 00 54 	call  a5b80208 <RAM_END+0xa5a80208>
  bc:	49 4d 45 52 	call  25351604 <RAM_END+0x25251604>
  c0:	5f 52 45 53 	call  7d49160c <RAM_END+0x7d39160c>
  c4:	45 54 49 52 	call  1551260c <RAM_END+0x1541260c>
  c8:	51 00 70 65 	call  4401c25c <RAM_END+0x43f1c25c>
  cc:	72 69 6f 64 	call  c9a5be5c <RAM_END+0xc995be5c>
  d0:	00 74 69 6d 	unknown
  d4:	65 00 6c 65 	call  9401b268 <RAM_END+0x93f1b268>
  d8:	76 65 6c 00 	call  d995b0d8 <RAM_END+0xd985b0d8>
  dc:	6d 61 69 6e 	call  b585a694 <RAM_END+0xb575a694>
  e0:	2e 63 00 53 	unknown
  e4:	6f 63 6c 69 	call  bd8db288 <RAM_END+0xbd7db288>
  e8:	62 54 69 6d 	call  8951a69c <RAM_END+0x8941a69c>
  ec:	65 72 52 65 	call  95c94a80 <RAM_END+0x95b94a80>
  f0:	67 69 73 74 	call  9da5cec0 <RAM_END+0x9d95cec0>
  f4:	65 72 73 00 	call  95c9ccf4 <RAM_END+0x95b9ccf4>
  f8:	53 6f 63 6c 	call  4dbd8ea8 <RAM_END+0x4dad8ea8>
  fc:	69 62 54 69 	call  a58952a0 <RAM_END+0xa57952a0>
 100:	6d 65 72 4d 	call  b595ca34 <RAM_END+0xb585ca34>
 104:	6f 64 65 00 	call  bd919504 <RAM_END+0xbd819504>
 108:	73 68 6f 72 	call  cda1bed0 <RAM_END+0xcd91bed0>
 10c:	74 20 69 6e 	call  d081a6c4 <RAM_END+0xd071a6c4>
 110:	74 00 54 49 	call  d0015234 <RAM_END+0xcff15234>
 114:	4d 45 52 5f 	call  35154a90 <RAM_END+0x35054a90>
 118:	56 41 4c 55 	call  5905326c <RAM_END+0x58f5326c>
 11c:	45 00 75 69 	call  1401d6c0 <RAM_END+0x13f1d6c0>
 120:	6e 74 33 32 	call  b9d0cde8 <RAM_END+0xb9c0cde8>
 124:	5f 74 00 54 	call  7dd00274 <RAM_END+0x7dc00274>
 128:	49 4d 45 52 	call  25351670 <RAM_END+0x25251670>
 12c:	5f 50 45 52 	call  7d411674 <RAM_END+0x7d311674>
 130:	49 4f 44 00 	call  253d1130 <RAM_END+0x252d1130>
 134:	54 49 4d 45 	call  51253648 <RAM_END+0x51153648>
 138:	52 5f 4d 4f 	call  497d3674 <RAM_END+0x496d3674>
 13c:	44 45 00 2f 	call  111401f8 <RAM_END+0x110401f8>
 140:	72 6f 6f 74 	call  c9bdbf10 <RAM_END+0xc9adbf10>
 144:	2f 53 69 67 	unknown
 148:	6d 61 4c 69 	call  b58532ec <RAM_END+0xb57532ec>
 14c:	62 2f 53 6f 	call  88bd4f08 <RAM_END+0x88ad4f08>
 150:	63 6c 69 62 	call  8db1a6d8 <RAM_END+0x8da1a6d8>
 154:	2f 53 70 61 	unknown
 158:	72 63 49 2f 	call  c98d2614 <RAM_END+0xc97d2614>
 15c:	73 6f 66 74 	call  cdbd9b2c <RAM_END+0xcdad9b2c>
 160:	00 2f 72 6f 	unimp  0xffef726f
 164:	6f 74 2f 73 	call  bdd0bf30 <RAM_END+0xbdc0bf30>
 168:	6f 63 6c 69 	call  bd8db30c <RAM_END+0xbd7db30c>
 16c:	62 2f 73 6f 	call  88bdcf28 <RAM_END+0x88adcf28>
 170:	63 6c 69 62 	call  8db1a6f8 <RAM_END+0x8da1a6f8>
 174:	2f 70 6c 61 	unknown
 178:	74 66 6f 72 	call  d199bf40 <RAM_END+0xd189bf40>
 17c:	6d 2f 74 6f 	call  b4bdd338 <RAM_END+0xb4add338>
 180:	70 63 65 6c 	call  c18d9730 <RAM_END+0xc17d9730>
 184:	6c 73 2f 63 	call  b1ccbf10 <RAM_END+0xb1bcbf10>
 188:	6f 6d 6d 6f 	call  bdb5b744 <RAM_END+0xbda5b744>
 18c:	6e 2f 65 78 	call  b8bd976c <RAM_END+0xb8ad976c>
 190:	63 65 70 74 	call  8d95c360 <RAM_END+0x8d85c360>
 194:	69 6f 6e 2e 	call  a5bdba4c <RAM_END+0xa5adba4c>
 198:	63 00 73 79 	call  8c01cf7c <RAM_END+0x8bf1cf7c>
 19c:	73 5f 68 61 	call  cd7da320 <RAM_END+0xcd6da320>
 1a0:	6e 64 6c 65 	call  b991b334 <RAM_END+0xb981b334>
 1a4:	72 5f 74 00 	call  c97dd1a4 <RAM_END+0xc96dd1a4>
 1a8:	76 61 6c 75 	call  d985b37c <RAM_END+0xd975b37c>
 1ac:	65 00 64 65 	call  94019340 <RAM_END+0x93f19340>
 1b0:	6c 74 61 00 	call  b1d185b0 <RAM_END+0xb1c185b0>
 1b4:	54 54 59 5f 	call  51516730 <RAM_END+0x51416730>
 1b8:	57 52 49 54 	call  5d492708 <RAM_END+0x5d392708>
 1bc:	45 00 72 65 	call  1401cb50 <RAM_END+0x13f1cb50>
 1c0:	67 74 61 62 	call  9dd18748 <RAM_END+0x9dc18748>
 1c4:	6c 65 00 54 	call  b1940314 <RAM_END+0xb1840314>
 1c8:	54 59 5f 53 	call  51657f14 <RAM_END+0x51557f14>
 1cc:	54 41 54 55 	call  51055320 <RAM_END+0x50f55320>
 1d0:	53 00 61 74 	call  4c0187a0 <RAM_END+0x4bf187a0>
 1d4:	6f 6d 69 63 	call  bdb5a760 <RAM_END+0xbda5a760>
 1d8:	5f 61 64 64 	call  7d859368 <RAM_END+0x7d759368>
 1dc:	00 69 72 71 	unknown
 1e0:	5f 65 6e 61 	call  7d95bb64 <RAM_END+0x7d85bb64>
 1e4:	62 6c 65 00 	call  89b195e4 <RAM_END+0x89a195e4>
 1e8:	73 65 74 5f 	call  cd95d364 <RAM_END+0xcd85d364>
 1ec:	65 78 5f 68 	call  95e17f8c <RAM_END+0x95d17f8c>
 1f0:	61 6e 64 6c 	call  85b993a0 <RAM_END+0x85a993a0>
 1f4:	65 72 00 2f 	call  95c802b0 <RAM_END+0x95b802b0>
 1f8:	72 6f 6f 74 	call  c9bdbfc8 <RAM_END+0xc9adbfc8>
 1fc:	2f 73 6f 63 	unknown
 200:	6c 69 62 2f 	call  b1a58abc <RAM_END+0xb1958abc>
 204:	73 6f 63 6c 	call  cdbd8fb4 <RAM_END+0xcdad8fb4>
 208:	69 62 2f 70 	call  a588bfc8 <RAM_END+0xa578bfc8>
 20c:	6c 61 74 66 	call  b185d3a4 <RAM_END+0xb175d3a4>
 210:	6f 72 6d 2f 	call  bdc9b6cc <RAM_END+0xbdb9b6cc>
 214:	74 6f 70 63 	call  d1bdc3a0 <RAM_END+0xd1adc3a0>
 218:	65 6c 6c 73 	call  95b1b3e4 <RAM_END+0x95a1b3e4>
 21c:	2f 63 6f 6d 	unknown
 220:	6d 6f 6e 2f 	call  b5bdbadc <RAM_END+0xb5adbadc>
 224:	73 79 73 74 	call  cde5cff4 <RAM_END+0xcdd5cff4>
 228:	65 6d 2e 63 	call  95b4bbb4 <RAM_END+0x95a4bbb4>
 22c:	00 5f 5f 69 	unknown
 230:	6e 6c 69 6e 	call  b9b1a7e8 <RAM_END+0xb9a1a7e8>
 234:	65 5f 70 75 	call  957dc408 <RAM_END+0x956dc408>
 238:	74 63 68 61 	call  d18da3bc <RAM_END+0xd17da3bc>
 23c:	72 00 65 78 	call  c801981c <RAM_END+0xc7f1981c>
 240:	65 63 70 74 	call  958dc410 <RAM_END+0x957dc410>
 244:	72 00 69 6e 	call  c801a7fc <RAM_END+0xc7f1a7fc>
 248:	74 65 72 72 	call  d195cc10 <RAM_END+0xd185cc10>
 24c:	75 70 74 5f 	call  d5c1d3c8 <RAM_END+0xd5b1d3c8>
 250:	73 79 73 5f 	call  cde5cfcc <RAM_END+0xcdd5cfcc>
 254:	68 61 6e 64 	call  a185bbe4 <RAM_END+0xa175bbe4>
 258:	6c 65 72 00 	call  b195ca58 <RAM_END+0xb185ca58>
 25c:	69 72 71 5f 	call  a5c9c7d8 <RAM_END+0xa5b9c7d8>
 260:	64 69 73 61 	call  91a5cfe4 <RAM_END+0x9195cfe4>
 264:	62 6c 65 00 	call  89b19664 <RAM_END+0x89a19664>
 268:	73 6f 63 6c 	call  cdbd9018 <RAM_END+0xcdad9018>
 26c:	69 62 5f 69 	call  a5898010 <RAM_END+0xa5798010>
 270:	6f 5f 72 65 	call  bd7dcc04 <RAM_END+0xbd6dcc04>
 274:	61 64 38 00 	call  8590e274 <RAM_END+0x8580e274>
 278:	75 73 65 72 	call  d5cd9840 <RAM_END+0xd5bd9840>
 27c:	5f 65 78 5f 	call  7d95e3f8 <RAM_END+0x7d85e3f8>
 280:	68 61 6e 64 	call  a185bc10 <RAM_END+0xa175bc10>
 284:	6c 65 72 00 	call  b195ca84 <RAM_END+0xb185ca84>
 288:	5f 5f 69 6e 	call  7d7da840 <RAM_END+0x7d6da840>
 28c:	6c 69 6e 65 	call  b1a5bc20 <RAM_END+0xb195bc20>
 290:	5f 67 65 74 	call  7d9d9860 <RAM_END+0x7d8d9860>
 294:	63 68 61 72 	call  8da1885c <RAM_END+0x8d91885c>
 298:	00 64 61 74 	unknown
 29c:	61 70 74 72 	call  85c1d464 <RAM_END+0x85b1d464>
 2a0:	00 65 78 5f 	unknown
 2a4:	68 61 6e 64 	call  a185bc34 <RAM_END+0xa175bc34>
 2a8:	6c 65 72 5f 	call  b195cc24 <RAM_END+0xb185cc24>
 2ac:	74 00 66 61 	call  d0019c30 <RAM_END+0xcff19c30>
 2b0:	69 6c 65 64 	call  a5b19840 <RAM_END+0xa5a19840>
 2b4:	00 73 65 72 	unknown
 2b8:	76 69 63 65 	call  d9a5904c <RAM_END+0xd995904c>
 2bc:	00 73 79 6e 	unknown
 2c0:	63 00 54 54 	call  8c015410 <RAM_END+0x8bf15410>
 2c4:	59 5f 52 45 	call  657d4bd8 <RAM_END+0x656d4bd8>
 2c8:	41 44 00 5f 	call  5100444 <RAM_END+0x5000444>
 2cc:	5f 46 55 4e 	call  7d195804 <RAM_END+0x7d095804>
 2d0:	43 54 49 4f 	call  d51280c <RAM_END+0xd41280c>
 2d4:	4e 5f 5f 00 	call  397d7ed4 <RAM_END+0x396d7ed4>
 2d8:	73 6f 63 6c 	call  cdbd9088 <RAM_END+0xcdad9088>
 2dc:	69 62 5f 69 	call  a5898080 <RAM_END+0xa5798080>
 2e0:	6f 5f 77 72 	call  bd7de0a8 <RAM_END+0xbd6de0a8>
 2e4:	69 74 65 38 	call  a5d197c4 <RAM_END+0xa5c197c4>
 2e8:	00 70 61 75 	unknown
 2ec:	73 65 00 72 	call  cd9404b4 <RAM_END+0xcd8404b4>
 2f0:	75 6e 5f 63 	call  d5b9807c <RAM_END+0xd5a9807c>
 2f4:	79 63 6c 65 	call  e58db488 <RAM_END+0xe57db488>
 2f8:	73 00 6c 6f 	call  cc01b4b4 <RAM_END+0xcbf1b4b4>
 2fc:	63 6b 5f 75 	call  8dad80d0 <RAM_END+0x8d9d80d0>
 300:	6e 6c 6f 63 	call  b9b1c08c <RAM_END+0xb9a1c08c>
 304:	6b 00 75 73 	call  ac01d8d0 <RAM_END+0xabf1d8d0>
 308:	65 72 5f 69 	call  95c980ac <RAM_END+0x95b980ac>
 30c:	72 71 5f 68 	call  c9c580ac <RAM_END+0xc9b580ac>
 310:	61 6e 64 6c 	call  85b994c0 <RAM_END+0x85a994c0>
 314:	65 72 00 75 	call  95c804e8 <RAM_END+0x95b804e8>
 318:	69 6e 74 38 	call  a5b9d3f8 <RAM_END+0xa5a9d3f8>
 31c:	5f 74 00 54 	call  7dd0046c <RAM_END+0x7dc0046c>
 320:	54 59 5f 53 	call  5165806c <RAM_END+0x5155806c>
 324:	50 41 4e 00 	call  41053b24 <RAM_END+0x40f53b24>
 328:	73 74 61 63 	call  cdd188b4 <RAM_END+0xcdc188b4>
 32c:	6b 70 74 72 	call  adc1d4f4 <RAM_END+0xadb1d4f4>
 330:	00 73 65 74 	unknown
 334:	5f 73 79 73 	call  7dcde900 <RAM_END+0x7dbde900>
 338:	5f 68 61 6e 	call  7da188f0 <RAM_END+0x7d9188f0>
 33c:	64 6c 65 72 	call  91b19904 <RAM_END+0x91a19904>
 340:	00 69 6e 74 	unknown
 344:	65 72 72 75 	call  95c9cd18 <RAM_END+0x95b9cd18>
 348:	70 74 5f 65 	call  c1d180dc <RAM_END+0xc1c180dc>
 34c:	78 5f 68 61 	call  e17da4d0 <RAM_END+0xe16da4d0>
 350:	6e 64 6c 65 	call  b991b4e4 <RAM_END+0xb981b4e4>
 354:	72 00 53 6f 	call  c8015110 <RAM_END+0xc7f15110>
 358:	63 6c 69 62 	call  8db1a8e0 <RAM_END+0x8da1a8e0>
 35c:	54 74 79 52 	call  51d1e8a4 <RAM_END+0x51c1e8a4>
 360:	65 67 69 73 	call  959da92c <RAM_END+0x958da92c>
 364:	74 65 72 73 	call  d195cd30 <RAM_END+0xd185cd30>
 368:	00 74 79 70 	unknown
 36c:	65 00 63 70 	call  9401912c <RAM_END+0x93f1912c>
 370:	75 5f 63 79 	call  d57d9154 <RAM_END+0xd56d9154>
 374:	63 6c 65 73 	call  8db19940 <RAM_END+0x8da19940>
 378:	00 70 75 74 	unknown
 37c:	69 00 64 69 	call  a4019520 <RAM_END+0xa3f19520>
 380:	73 61 62 6c 	call  cd858d30 <RAM_END+0xcd758d30>
 384:	65 5f 68 77 	call  957da560 <RAM_END+0x956da560>
 388:	5f 69 72 71 	call  7da5cd4c <RAM_END+0x7d95cd4c>
 38c:	00 69 72 71 	unknown
 390:	5f 68 61 6e 	call  7da18948 <RAM_END+0x7d918948>
 394:	64 6c 65 72 	call  91b1995c <RAM_END+0x91a1995c>
 398:	5f 74 00 75 	call  7dd0056c <RAM_END+0x7dc0056c>
 39c:	73 65 72 5f 	call  cd95cd18 <RAM_END+0xcd85cd18>
 3a0:	73 79 73 5f 	call  cde5d11c <RAM_END+0xcdd5d11c>
 3a4:	68 61 6e 64 	call  a185bd34 <RAM_END+0xa175bd34>
 3a8:	6c 65 72 00 	call  b195cba8 <RAM_END+0xb185cba8>
 3ac:	65 6e 61 62 	call  95b98934 <RAM_END+0x95a98934>
 3b0:	6c 65 5f 68 	call  b1958150 <RAM_END+0xb1858150>
 3b4:	77 5f 69 72 	call  dd7da97c <RAM_END+0xdd6da97c>
 3b8:	71 00 69 6e 	call  c401a970 <RAM_END+0xc3f1a970>
 3bc:	74 65 72 72 	call  d195cd84 <RAM_END+0xd185cd84>
 3c0:	75 70 74 5f 	call  d5c1d53c <RAM_END+0xd5b1d53c>
 3c4:	68 77 5f 68 	call  a1dd8164 <RAM_END+0xa1cd8164>
 3c8:	61 6e 64 6c 	call  85b99578 <RAM_END+0x85a99578>
 3cc:	65 72 00 6c 	call  95c8057c <RAM_END+0x95b8057c>
 3d0:	6f 63 6b 5f 	call  bd8db14c <RAM_END+0xbd7db14c>
 3d4:	6c 6f 63 6b 	call  b1bd9180 <RAM_END+0xb1ad9180>
 3d8:	00 70 75 74 	unknown
 3dc:	73 00 73 65 	call  cc01d170 <RAM_END+0xcbf1d170>
 3e0:	74 5f 69 72 	call  d17da9a8 <RAM_END+0xd16da9a8>
 3e4:	71 5f 68 61 	call  c57da568 <RAM_END+0xc56da568>
 3e8:	6e 64 6c 65 	call  b991b57c <RAM_END+0xb981b57c>
 3ec:	72 00 5f 5f 	call  c8018168 <RAM_END+0xc7f18168>
 3f0:	62 75 69 6c 	call  89d5a9a0 <RAM_END+0x89c5a9a0>
 3f4:	74 69 6e 5f 	call  d1a5bd70 <RAM_END+0xd195bd70>
 3f8:	76 61 5f 6c 	call  d98581a8 <RAM_END+0xd97581a8>
 3fc:	69 73 74 00 	call  a5cdd3fc <RAM_END+0xa5bdd3fc>
 400:	6d 61 73 6b 	call  b585d1ac <RAM_END+0xb575d1ac>
 404:	00 61 67 61 	unknown
 408:	69 6e 00 5f 	call  a5b80584 <RAM_END+0xa5a80584>
 40c:	5f 67 6e 75 	call  7d9dbde0 <RAM_END+0x7d8dbde0>
 410:	63 5f 76 61 	call  8d7ddd94 <RAM_END+0x8d6ddd94>
 414:	5f 6c 69 73 	call  7db1a9e0 <RAM_END+0x7da1a9e0>
 418:	74 00 69 72 	call  d001a9e0 <RAM_END+0xcff1a9e0>
 41c:	65 66 31 00 	call  9598c81c <RAM_END+0x9588c81c>
 420:	73 74 72 63 	call  cdd1cdac <RAM_END+0xcdc1cdac>
 424:	70 79 00 2f 	call  c1e404e0 <RAM_END+0xc1d404e0>
 428:	72 6f 6f 74 	call  c9bdc1f8 <RAM_END+0xc9adc1f8>
 42c:	2f 73 6f 63 	unknown
 430:	6c 69 62 2f 	call  b1a58cec <RAM_END+0xb1958cec>
 434:	73 6f 63 6c 	call  cdbd91e4 <RAM_END+0xcdad91e4>
 438:	69 62 2f 70 	call  a588c1f8 <RAM_END+0xa578c1f8>
 43c:	6c 61 74 66 	call  b185d5d4 <RAM_END+0xb175d5d4>
 440:	6f 72 6d 2f 	call  bdc9b8fc <RAM_END+0xbdb9b8fc>
 444:	74 6f 70 63 	call  d1bdc5d0 <RAM_END+0xd1adc5d0>
 448:	65 6c 6c 73 	call  95b1b614 <RAM_END+0x95a1b614>
 44c:	2f 63 6f 6d 	unknown
 450:	6d 6f 6e 2f 	call  b5bdbd0c <RAM_END+0xb5adbd0c>
 454:	73 74 64 69 	call  cdd195f8 <RAM_END+0xcdc195f8>
 458:	6f 2e 63 00 	call  bcb99058 <RAM_END+0xbca99058>
 45c:	73 74 72 63 	call  cdd1cde8 <RAM_END+0xcdc1cde8>
 460:	6d 70 00 70 	call  b5c00620 <RAM_END+0xb5b00620>
 464:	72 69 6e 74 	call  c9a5be34 <RAM_END+0xc995be34>
 468:	66 00 73 74 	call  9801d238 <RAM_END+0x97f1d238>
 46c:	72 63 6d 70 	call  c98dba2c <RAM_END+0xc97dba2c>
 470:	5f 62 00 69 	call  7d880614 <RAM_END+0x7d780614>
 474:	72 65 66 30 	call  c9959d34 <RAM_END+0xc9859d34>
 478:	00 6e 65 78 	unknown
 47c:	74 00 65 78 	call  d0019a5c <RAM_END+0xcff19a5c>
 480:	69 74 00 61 	call  a5d00604 <RAM_END+0xa5c00604>
 484:	6c 69 67 6e 	call  b1a5a23c <RAM_END+0xb195a23c>
 488:	00 2f 72 6f 	unimp  0xffef726f
 48c:	6f 74 2f 73 	call  bdd0c258 <RAM_END+0xbdc0c258>
 490:	6f 63 6c 69 	call  bd8db634 <RAM_END+0xbd7db634>
 494:	62 2f 73 6f 	call  88bdd250 <RAM_END+0x88add250>
 498:	63 6c 69 62 	call  8db1aa20 <RAM_END+0x8da1aa20>
 49c:	2f 70 6c 61 	unknown
 4a0:	74 66 6f 72 	call  d199c268 <RAM_END+0xd189c268>
 4a4:	6d 2f 74 6f 	call  b4bdd660 <RAM_END+0xb4add660>
 4a8:	70 63 65 6c 	call  c18d9a58 <RAM_END+0xc17d9a58>
 4ac:	6c 73 2f 63 	call  b1ccc238 <RAM_END+0xb1bcc238>
 4b0:	6f 6d 6d 6f 	call  bdb5ba6c <RAM_END+0xbda5ba6c>
 4b4:	6e 2f 73 74 	call  b8bdd284 <RAM_END+0xb8add284>
 4b8:	64 6c 69 62 	call  91b1aa40 <RAM_END+0x91a1aa40>
 4bc:	2e 63 00 63 	unknown
 4c0:	73 72 63 00 	call  cdc990c0 <RAM_END+0xcdb990c0>
 4c4:	5f 73 72 63 	call  7dcdce50 <RAM_END+0x7dbdce50>
 4c8:	00 68 65 61 	unknown
 4cc:	70 5f 70 6f 	call  c17dc688 <RAM_END+0xc16dc688>
 4d0:	69 6e 74 65 	call  a5b9d664 <RAM_END+0xa5a9d664>
 4d4:	72 00 74 72 	call  c801d69c <RAM_END+0xc7f1d69c>
 4d8:	61 70 00 66 	call  85c00670 <RAM_END+0x85b00670>
 4dc:	72 65 65 00 	call  c99598dc <RAM_END+0xc98598dc>
 4e0:	63 64 73 74 	call  8d91d2b0 <RAM_END+0x8d81d2b0>
 4e4:	00 6d 65 6d 	unknown
 4e8:	63 70 79 00 	call  8dc1e8e8 <RAM_END+0x8db1e8e8>
 4ec:	5f 64 73 74 	call  7d91d2bc <RAM_END+0x7d81d2bc>
 4f0:	00 61 62 6f 	unknown
 4f4:	72 74 00 73 	call  c9d006c0 <RAM_END+0xc9c006c0>
 4f8:	69 7a 65 00 	call  a5e998f8 <RAM_END+0xa5d998f8>
 4fc:	6d 61 6c 6c 	call  b585b6ac <RAM_END+0xb575b6ac>
 500:	Address 0x00000500 is out of bounds.


Disassembly of section .debug_loc:

00000000 <.debug_loc>:
   0:	00 00 00 00 	unimp  0
   4:	00 00 00 04 	unimp  0x4
   8:	00 02 7e 00 	unimp  0x27e00
   c:	00 00 00 04 	unimp  0x4
  10:	00 00 00 60 	unimp  0x60
  14:	00 02 8e 00 	unimp  0x28e00
	...
  20:	00 00 00 24 	unimp  0x24
  24:	00 00 00 3c 	unimp  0x3c
  28:	00 01 58 00 	unimp  0x15800
  2c:	00 00 3c 00 	unimp  0x3c00
  30:	00 00 47 00 	unimp  0x4700
  34:	01 5c 00 00 	unknown
	...
  40:	00 28 00 00 	unimp  0xffe80000
  44:	00 30 00 01 	unimp  0xfff00001
  48:	51 00 00 00 	call  44000048 <RAM_END+0x43f00048>
  4c:	00 00 00 00 	unimp  0
  50:	00 00 00 00 	unimp  0
  54:	28 00 00 00 	unknown
  58:	30 00 05 71 	unknown
  5c:	00 32 24 9f 	unimp  0xfff2249f
	...
  68:	00 00 00 28 	unimp  0x28
  6c:	00 00 00 30 	unimp  0x30
  70:	00 06 9e 04 	unimp  0x69e04
  74:	b0 00 00 00 	add  %g0, %g0, %i0
	...
  80:	00 00 00 34 	unimp  0x34
  84:	00 00 00 47 	unimp  0x47
  88:	00 01 5a 00 	unimp  0x15a00
	...
  94:	00 00 38 00 	unimp  0x3800
  98:	00 00 47 00 	unimp  0x4700
  9c:	01 5b 00 00 	unknown
	...
  a8:	00 4c 00 00 	unknown
  ac:	00 50 00 01 	unknown
  b0:	51 00 00 00 	call  440000b0 <RAM_END+0x43f000b0>
  b4:	00 00 00 00 	unimp  0
  b8:	00 00 00 00 	unimp  0
  bc:	4c 00 00 00 	call  300000bc <RAM_END+0x2ff000bc>
  c0:	50 00 07 71 	call  40001e84 <RAM_END+0x3ff01e84>
  c4:	00 32 24 23 	unimp  0xfff22423
  c8:	03 9f 00 00 	fbne  7c00c8 <RAM_END+0x6c00c8>
  cc:	00 00 00 00 	unimp  0
  d0:	00 00 00 00 	unimp  0
  d4:	00 4c 00 00 	unknown
  d8:	00 54 00 06 	unknown
  dc:	9e 04 b0 00 	add  %l2, -4096, %o7
	...
  ec:	00 60 00 00 	unknown
  f0:	00 64 00 02 	unknown
  f4:	7e 00 00 00 	call  f80000f4 <RAM_END+0xf7f000f4>
  f8:	00 64 00 00 	unknown
  fc:	01 38 00 02 	sethi  %hi(0xe0000800), %g0
 100:	8e 00 00 00 	add  %g0, %g0, %g7
	...
 10c:	00 6c 00 00 	unknown
 110:	00 77 00 01 	unknown
 114:	59 00 00 00 	call  64000114 <RAM_END+0x63f00114>
 118:	00 00 00 00 	unimp  0
 11c:	00 00 00 00 	unimp  0
 120:	dc 00 00 00 	ld  [ %g0 ], %sp
 124:	e4 00 01 51 	ld  [ %g0 + %l1 ], %l2
	...
 130:	00 00 00 dc 	unimp  0xdc
 134:	00 00 00 e4 	unimp  0xe4
 138:	00 05 71 00 	unimp  0x57100
 13c:	32 24 9f 00 	unknown
	...
 148:	00 00 dc 00 	unimp  0xdc00
 14c:	00 00 e4 00 	unimp  0xe400
 150:	06 9e 04 b0 	bl  781410 <RAM_END+0x681410>
 154:	00 00 00 00 	unimp  0
	...
 160:	00 00 e8 00 	unimp  0xe800
 164:	00 00 f3 00 	unimp  0xf300
 168:	01 59 00 00 	unknown
	...
 174:	00 f8 00 00 	unknown
 178:	01 00 00 01 	sethi  %hi(0x400), %g0
 17c:	51 00 00 00 	call  4400017c <RAM_END+0x43f0017c>
 180:	00 00 00 00 	unimp  0
 184:	00 00 00 00 	unimp  0
 188:	f8 00 00 01 	ld  [ %g0 + %g1 ], %i4
 18c:	00 00 07 71 	unimp  0x771
 190:	00 32 24 23 	unimp  0xfff22423
 194:	02 9f 00 00 	be  7c0194 <RAM_END+0x6c0194>
 198:	00 00 00 00 	unimp  0
 19c:	00 00 00 00 	unimp  0
 1a0:	00 f8 00 00 	unknown
 1a4:	01 08 00 06 	sethi  %hi(0x20001800), %g0
 1a8:	9e 04 b0 00 	add  %l2, -4096, %o7
	...
 1b8:	01 10 00 00 	sethi  %hi(0x40000000), %g0
 1bc:	01 18 00 01 	sethi  %hi(0x60000400), %g0
 1c0:	51 00 00 00 	call  440001c0 <RAM_END+0x43f001c0>
 1c4:	00 00 00 00 	unimp  0
 1c8:	00 00 00 01 	unimp  0x1
 1cc:	10 00 00 01 	unknown
 1d0:	18 00 07 71 	unknown
 1d4:	00 32 24 23 	unimp  0xfff22423
 1d8:	01 9f 00 00 	fbn  7c01d8 <RAM_END+0x6c01d8>
 1dc:	00 00 00 00 	unimp  0
 1e0:	00 00 00 00 	unimp  0
 1e4:	01 10 00 00 	sethi  %hi(0x40000000), %g0
 1e8:	01 1c 00 06 	sethi  %hi(0x70001800), %g0
 1ec:	9e 04 b0 00 	add  %l2, -4096, %o7
	...
 1fc:	01 24 00 00 	sethi  %hi(0x90000000), %g0
 200:	01 28 00 01 	sethi  %hi(0xa0000400), %g0
 204:	51 00 00 00 	call  44000204 <RAM_END+0x43f00204>
 208:	00 00 00 00 	unimp  0
 20c:	00 00 00 01 	unimp  0x1
 210:	24 00 00 01 	unknown
 214:	28 00 05 71 	unknown
 218:	00 32 24 9f 	unimp  0xfff2249f
	...
 224:	00 00 01 24 	unimp  0x124
 228:	00 00 01 28 	unimp  0x128
 22c:	00 06 9e 04 	unimp  0x69e04
 230:	b0 00 00 00 	add  %g0, %g0, %i0
	...
 23c:	00 00 01 2c 	unimp  0x12c
 240:	00 00 01 33 	unimp  0x133
 244:	00 01 59 00 	unimp  0x15900
	...
 250:	00 00 04 00 	unimp  0x400
 254:	00 00 0c 00 	unimp  0xc00
 258:	01 52 00 00 	unknown
	...
 264:	00 04 00 00 	unimp  0x40000
 268:	00 0c 00 05 	unimp  0xc0005
 26c:	72 00 32 24 	call  c800cafc <RAM_END+0xc7f0cafc>
 270:	9f 00 00 00 	taddcc  %g0, %g0, %o7
	...
 27c:	04 00 00 00 	unknown
 280:	0c 00 0e 72 	unknown
 284:	00 32 24 32 	unimp  0xfff22432
 288:	24 11 80 80 	unknown
 28c:	80 80 7a 22 	addcc  %g1, -1502, %g0
 290:	9f 00 00 00 	taddcc  %g0, %g0, %o7
	...
 29c:	1c 00 00 00 	unknown
 2a0:	24 00 07 72 	unknown
 2a4:	00 32 24 23 	unimp  0xfff22423
 2a8:	02 9f 00 00 	be  7c02a8 <RAM_END+0x6c02a8>
 2ac:	00 00 00 00 	unimp  0
 2b0:	00 00 00 00 	unimp  0
 2b4:	00 1c 00 00 	unimp  0x1c0000
 2b8:	00 24 00 10 	unimp  0xffe40010
 2bc:	72 00 32 24 	call  c800cb4c <RAM_END+0xc7f0cb4c>
 2c0:	23 02 32 24 	sethi  %hi(0x8c89000), %l1
 2c4:	11 80 80 80 	fb  204c4 <ISR_STACK_SIZE+0x1c4c4>
 2c8:	80 7a 22 9f 	sdiv  %o0, 0x29f, %g0
	...
 2d4:	00 00 00 1c 	unimp  0x1c
 2d8:	00 00 00 24 	unimp  0x24
 2dc:	00 01 52 00 	unimp  0x15200
	...
 2e8:	00 00 30 00 	unimp  0x3000
 2ec:	00 00 48 00 	unimp  0x4800
 2f0:	01 58 00 00 	unknown
 2f4:	00 48 00 00 	unknown
 2f8:	00 80 00 01 	bn  2fc <.debug_loc+0x2fc>
 2fc:	58 00 00 00 	call  600002fc <RAM_END+0x5ff002fc>
 300:	00 00 00 00 	unimp  0
 304:	00 00 00 00 	unimp  0
 308:	4c 00 00 00 	call  30000308 <RAM_END+0x2ff00308>
 30c:	50 00 05 72 	call  400018d4 <RAM_END+0x3ff018d4>
 310:	00 32 24 9f 	unimp  0xfff2249f
	...
 31c:	00 00 00 4c 	unimp  0x4c
 320:	00 00 00 6c 	unimp  0x6c
 324:	00 06 9e 04 	unimp  0x69e04
 328:	a0 00 00 00 	add  %g0, %g0, %l0
	...
 334:	00 00 00 4c 	unimp  0x4c
 338:	00 00 00 50 	unimp  0x50
 33c:	00 0e 72 00 	unimp  0xe7200
 340:	32 24 32 24 	unknown
 344:	11 80 80 80 	fb  20544 <ISR_STACK_SIZE+0x1c544>
 348:	80 7a 22 9f 	sdiv  %o0, 0x29f, %g0
	...
 354:	00 00 00 4c 	unimp  0x4c
 358:	00 00 00 50 	unimp  0x50
 35c:	00 01 52 00 	unimp  0x15200
	...
 368:	00 00 70 00 	unimp  0x7000
 36c:	00 00 78 00 	unimp  0x7800
 370:	01 52 00 00 	unknown
	...
 37c:	00 70 00 00 	unknown
 380:	00 78 00 05 	unknown
 384:	72 00 32 24 	call  c800cc14 <RAM_END+0xc7f0cc14>
 388:	9f 00 00 00 	taddcc  %g0, %g0, %o7
	...
 394:	70 00 00 00 	call  c0000394 <RAM_END+0xbff00394>
 398:	78 00 0e 72 	call  e0003d60 <RAM_END+0xdff03d60>
 39c:	00 32 24 32 	unimp  0xfff22432
 3a0:	24 11 80 80 	unknown
 3a4:	80 80 7a 22 	addcc  %g1, -1502, %g0
 3a8:	9f 00 00 00 	taddcc  %g0, %g0, %o7
	...
 3b4:	88 00 00 00 	add  %g0, %g0, %g4
 3b8:	8c 00 02 7e 	unknown
 3bc:	00 00 00 00 	unimp  0
 3c0:	8c 00 00 01 	add  %g0, %g1, %g6
 3c4:	28 00 02 8e 	unknown
	...
 3d4:	88 00 00 00 	add  %g0, %g0, %g4
 3d8:	cc 00 01 68 	ld  [ %g0 + %o0 ], %g6
 3dc:	00 00 00 dc 	unimp  0xdc
 3e0:	00 00 01 18 	unimp  0x118
 3e4:	00 01 68 00 	unimp  0x16800
	...
 3f0:	00 00 b0 00 	unimp  0xb000
 3f4:	00 00 cc 00 	unimp  0xcc00
 3f8:	0b 88 00 3a 	fbug  2004e0 <RAM_END+0x1004e0>
 3fc:	14 14 1b 1e 	unknown
 400:	1c 23 30 9f 	unknown
 404:	00 00 00 fc 	unimp  0xfc
 408:	00 00 01 18 	unimp  0x118
 40c:	00 0b 88 00 	unimp  0xb8800
 410:	3a 14 14 1b 	unknown
 414:	1e 1c 23 30 	unknown
 418:	9f 00 00 00 	taddcc  %g0, %g0, %o7
	...
 424:	b0 00 00 00 	add  %g0, %g0, %i0
 428:	cc 00 0b 88 	ld  [ %g0 + %o0 ], %g6
 42c:	00 3a 14 14 	unimp  0xfffa1414
 430:	1b 1e 1c 23 	sethi  %hi(0x78708c00), %o5
 434:	30 9f 00 00 	b,a   7c0434 <RAM_END+0x6c0434>
 438:	00 fc 00 00 	unknown
 43c:	01 18 00 0b 	sethi  %hi(0x60002c00), %g0
 440:	88 00 3a 14 	add  %g0, -1516, %g4	! 60002614 <RAM_END+0x5ff02614>
 444:	14 1b 1e 1c 	unknown
 448:	23 30 9f 00 	sethi  %hi(0xc27c0000), %l1
	...
 454:	00 00 b4 00 	unimp  0xb400
 458:	00 00 bc 00 	unimp  0xbc00
 45c:	01 52 00 00 	unknown
 460:	01 00 00 00 	nop 
 464:	01 08 00 01 	sethi  %hi(0x20000400), %g0
 468:	52 00 00 00 	call  48000468 <RAM_END+0x47f00468>
 46c:	00 00 00 00 	unimp  0
 470:	00 00 00 00 	unimp  0
 474:	b4 00 00 00 	add  %g0, %g0, %i2
 478:	bc 00 05 72 	unknown
 47c:	00 32 24 9f 	unimp  0xfff2249f
 480:	00 00 01 00 	unimp  0x100
 484:	00 00 01 08 	unimp  0x108
 488:	00 05 72 00 	unimp  0x57200
 48c:	32 24 9f 00 	unknown
	...
 498:	00 00 b4 00 	unimp  0xb400
 49c:	00 00 dc 00 	unimp  0xdc00
 4a0:	06 9e 04 a0 	bl  781720 <RAM_END+0x681720>
 4a4:	00 00 00 00 	unimp  0
 4a8:	00 01 00 00 	unimp  0x10000
 4ac:	00 01 28 00 	unimp  0x12800
 4b0:	06 9e 04 a0 	bl  781730 <RAM_END+0x681730>
 4b4:	00 00 00 00 	unimp  0
	...
 4c0:	00 00 b4 00 	unimp  0xb400
 4c4:	00 00 bc 00 	unimp  0xbc00
 4c8:	0e 72 00 32 	unknown
 4cc:	24 32 24 11 	unknown
 4d0:	80 80 80 80 	unknown
 4d4:	7a 22 9f 00 	call  e88a80d4 <RAM_END+0xe87a80d4>
 4d8:	00 01 00 00 	unimp  0x10000
 4dc:	00 01 08 00 	unimp  0x10800
 4e0:	0e 72 00 32 	unknown
 4e4:	24 32 24 11 	unknown
 4e8:	80 80 80 80 	unknown
 4ec:	7a 22 9f 00 	call  e88a80ec <RAM_END+0xe87a80ec>
 4f0:	00 00 00 00 	unimp  0
 4f4:	00 00 00 00 	unimp  0
 4f8:	00 01 44 00 	unimp  0x14400
 4fc:	00 01 48 00 	unimp  0x14800
 500:	02 7e 00 00 	unknown
 504:	00 01 48 00 	unimp  0x14800
 508:	00 01 94 00 	unimp  0x19400
 50c:	02 8e 00 00 	be  38050c <RAM_END+0x28050c>
 510:	00 00 00 00 	unimp  0
 514:	00 00 00 00 	unimp  0
 518:	00 01 44 00 	unimp  0x14400
 51c:	00 01 68 00 	unimp  0x16800
 520:	01 69 00 00 	unknown
 524:	01 68 00 00 	unknown
 528:	01 6f 00 01 	unknown
 52c:	59 00 00 01 	call  64000530 <RAM_END+0x63f00530>
 530:	6f 00 00 01 	call  bc000534 <RAM_END+0xbbf00534>
 534:	94 00 01 69 	unknown
	...
 540:	00 00 01 44 	unimp  0x144
 544:	00 00 01 68 	unimp  0x168
 548:	00 01 6a 00 	unimp  0x16a00
 54c:	00 01 68 00 	unimp  0x16800
 550:	00 01 6f 00 	unimp  0x16f00
 554:	01 5a 00 00 	unknown
 558:	01 6f 00 00 	unknown
 55c:	01 94 00 01 	fbn  500560 <RAM_END+0x400560>
 560:	6a 00 00 00 	call  a8000560 <RAM_END+0xa7f00560>
 564:	00 00 00 00 	unimp  0
 568:	00 00 00 01 	unimp  0x1
 56c:	44 00 00 01 	call  10000570 <RAM_END+0xff00570>
 570:	68 00 01 6b 	call  a0000b1c <RAM_END+0x9ff00b1c>
 574:	00 00 01 68 	unimp  0x168
 578:	00 00 01 6f 	unimp  0x16f
 57c:	00 01 5b 00 	unimp  0x15b00
 580:	00 01 6f 00 	unimp  0x16f00
 584:	00 01 94 00 	unimp  0x19400
 588:	01 6b 00 00 	unknown
	...
 594:	01 44 00 00 	unknown
 598:	01 68 00 01 	unknown
 59c:	6c 00 00 01 	call  b00005a0 <RAM_END+0xaff005a0>
 5a0:	68 00 00 01 	call  a00005a4 <RAM_END+0x9ff005a4>
 5a4:	6f 00 01 5c 	call  bc000b14 <RAM_END+0xbbf00b14>
 5a8:	00 00 01 6f 	unimp  0x16f
 5ac:	00 00 01 94 	unimp  0x194
 5b0:	00 01 6c 00 	unimp  0x16c00
	...
 5bc:	00 01 a0 00 	unimp  0x1a000
 5c0:	00 01 a4 00 	unimp  0x1a400
 5c4:	02 7e 00 00 	unknown
 5c8:	00 01 a4 00 	unimp  0x1a400
 5cc:	00 01 ec 00 	unimp  0x1ec00
 5d0:	02 8e 00 00 	be  3805d0 <RAM_END+0x2805d0>
 5d4:	00 00 00 00 	unimp  0
 5d8:	00 00 00 00 	unimp  0
 5dc:	00 01 a0 00 	unimp  0x1a000
 5e0:	00 01 c0 00 	unimp  0x1c000
 5e4:	01 69 00 00 	unknown
 5e8:	01 c0 00 00 	cbn  5e8 <.debug_loc+0x5e8>
 5ec:	01 c7 00 01 	cbn  1c05f0 <RAM_END+0xc05f0>
 5f0:	59 00 00 01 	call  640005f4 <RAM_END+0x63f005f4>
 5f4:	c7 00 00 01 	ld  [ %g0 + %g1 ], %f3
 5f8:	ec 00 01 69 	ld  [ %g0 + %o1 ], %l6
	...
 604:	00 00 01 a0 	unimp  0x1a0
 608:	00 00 01 c0 	unimp  0x1c0
 60c:	00 01 6a 00 	unimp  0x16a00
 610:	00 01 c0 00 	unimp  0x1c000
 614:	00 01 c7 00 	unimp  0x1c700
 618:	01 5a 00 00 	unknown
 61c:	01 c7 00 00 	cbn  1c061c <RAM_END+0xc061c>
 620:	01 ec 00 01 	cbn  ffb00624 <RAM_END+0xffa00624>
 624:	6a 00 00 00 	call  a8000624 <RAM_END+0xa7f00624>
 628:	00 00 00 00 	unimp  0
 62c:	00 00 00 01 	unimp  0x1
 630:	a0 00 00 01 	add  %g0, %g1, %l0
 634:	c0 00 01 6b 	ld  [ %g0 + %o3 ], %g0
 638:	00 00 01 c0 	unimp  0x1c0
 63c:	00 00 01 c7 	unimp  0x1c7
 640:	00 01 5b 00 	unimp  0x15b00
 644:	00 01 c7 00 	unimp  0x1c700
 648:	00 01 ec 00 	unimp  0x1ec00
 64c:	01 6b 00 00 	unknown
	...
 658:	02 28 00 00 	unknown
 65c:	02 2c 00 02 	unknown
 660:	7e 00 00 00 	call  f8000660 <RAM_END+0xf7f00660>
 664:	02 2c 00 00 	unknown
 668:	02 68 00 02 	unknown
 66c:	8e 00 00 00 	add  %g0, %g0, %g7
	...
 678:	02 68 00 00 	unknown
 67c:	02 70 00 01 	unknown
 680:	58 00 00 00 	call  60000680 <RAM_END+0x5ff00680>
 684:	00 00 00 00 	unimp  0
 688:	00 00 00 02 	unimp  0x2
 68c:	6c 00 00 02 	call  b0000694 <RAM_END+0xaff00694>
 690:	70 00 01 58 	call  c0000bf0 <RAM_END+0xbff00bf0>
 694:	00 00 02 70 	unimp  0x270
 698:	00 00 02 80 	unimp  0x280
 69c:	00 01 51 00 	unimp  0x15100
	...
 6a8:	00 02 70 00 	unimp  0x27000
 6ac:	00 02 74 00 	unimp  0x27400
 6b0:	01 58 00 00 	unknown
	...
 6bc:	02 84 00 00 	be  1006bc <RAM_END+0x6bc>
 6c0:	02 90 00 01 	be  4006c4 <RAM_END+0x3006c4>
 6c4:	51 00 00 00 	call  440006c4 <RAM_END+0x43f006c4>
 6c8:	00 00 00 00 	unimp  0
	...
 6d4:	04 00 02 7e 	unknown
 6d8:	00 00 00 00 	unimp  0
 6dc:	04 00 00 00 	unknown
 6e0:	20 00 02 8e 	unknown
	...
 6f4:	18 00 01 68 	unknown
	...
 700:	00 00 00 20 	unimp  0x20
 704:	00 00 00 30 	unimp  0x30
 708:	00 01 58 00 	unimp  0x15800
 70c:	00 00 30 00 	unimp  0x3000
 710:	00 00 44 00 	unimp  0x4400
 714:	01 58 00 00 	unknown
	...
 720:	00 20 00 00 	unimp  0xffe00000
 724:	00 2c 00 01 	unimp  0xffec0001
 728:	59 00 00 00 	call  64000728 <RAM_END+0x63f00728>
 72c:	2c 00 00 00 	unknown
 730:	30 00 03 79 	unknown
 734:	7f 9f 00 00 	call  fe7c0734 <RAM_END+0xfe6c0734>
 738:	00 30 00 00 	unimp  0xfff00000
 73c:	00 44 00 01 	unknown
 740:	59 00 00 00 	call  64000740 <RAM_END+0x63f00740>
 744:	00 00 00 00 	unimp  0
 748:	00 00 00 00 	unimp  0
 74c:	44 00 00 00 	call  1000074c <RAM_END+0xff0074c>
 750:	48 00 02 7e 	call  20001148 <RAM_END+0x1ff01148>
 754:	00 00 00 00 	unimp  0
 758:	48 00 00 03 	call  20000764 <RAM_END+0x1ff00764>
 75c:	a8 00 02 8e 	unknown
	...
 76c:	44 00 00 00 	call  1000076c <RAM_END+0xff0076c>
 770:	70 00 01 68 	call  c0000d10 <RAM_END+0xbff00d10>
 774:	00 00 00 70 	unimp  0x70
 778:	00 00 00 c4 	unimp  0xc4
 77c:	00 01 52 00 	unimp  0x15200
 780:	00 00 c4 00 	unimp  0xc400
 784:	00 01 04 00 	unimp  0x10400
 788:	01 52 00 00 	unknown
 78c:	01 04 00 00 	sethi  %hi(0x10000000), %g0
 790:	01 2c 00 01 	sethi  %hi(0xb0000400), %g0
 794:	52 00 00 01 	call  48000798 <RAM_END+0x47f00798>
 798:	2c 00 00 01 	unknown
 79c:	d4 00 01 52 	ld  [ %g0 + %l2 ], %o2
 7a0:	00 00 01 d4 	unimp  0x1d4
 7a4:	00 00 02 bc 	unimp  0x2bc
 7a8:	00 01 52 00 	unimp  0x15200
 7ac:	00 02 bc 00 	unimp  0x2bc00
 7b0:	00 03 7c 00 	unimp  0x37c00
 7b4:	01 52 00 00 	unknown
 7b8:	03 7c 00 00 	unknown
 7bc:	03 a8 00 01 	fbne  ffa007c0 <RAM_END+0xff9007c0>
 7c0:	52 00 00 00 	call  480007c0 <RAM_END+0x47f007c0>
 7c4:	00 00 00 00 	unimp  0
 7c8:	00 00 00 01 	unimp  0x1
 7cc:	5c 00 00 01 	call  700007d0 <RAM_END+0x6ff007d0>
 7d0:	78 00 01 51 	call  e0000d14 <RAM_END+0xdff00d14>
 7d4:	00 00 01 78 	unimp  0x178
 7d8:	00 00 01 ac 	unimp  0x1ac
 7dc:	00 01 51 00 	unimp  0x15100
 7e0:	00 01 ac 00 	unimp  0x1ac00
 7e4:	00 01 c4 00 	unimp  0x1c400
 7e8:	01 51 00 00 	unknown
 7ec:	01 c4 00 00 	cbn  1007ec <RAM_END+0x7ec>
 7f0:	01 dc 00 01 	cbn  7007f4 <RAM_END+0x6007f4>
 7f4:	51 00 00 01 	call  440007f8 <RAM_END+0x43f007f8>
 7f8:	e4 00 00 01 	ld  [ %g0 + %g1 ], %l2
 7fc:	fc 00 03 91 	ld  [ %g0 + %l1 ], %fp
 800:	7c 06 00 00 	call  f0180800 <RAM_END+0xf0080800>
 804:	02 14 00 00 	unknown
 808:	02 1c 00 01 	unknown
 80c:	51 00 00 02 	call  44000814 <RAM_END+0x43f00814>
 810:	1c 00 00 02 	unknown
 814:	38 00 01 51 	unknown
 818:	00 00 02 50 	unimp  0x250
 81c:	00 00 02 58 	unimp  0x258
 820:	00 03 91 77 	unimp  0x39177
 824:	9f 00 00 02 	taddcc  %g0, %g2, %o7
 828:	58 00 00 02 	call  60000830 <RAM_END+0x5ff00830>
 82c:	74 00 01 51 	call  d0000d70 <RAM_END+0xcff00d70>
 830:	00 00 02 74 	unimp  0x274
 834:	00 00 02 9c 	unimp  0x29c
 838:	00 01 51 00 	unimp  0x15100
 83c:	00 02 d8 00 	unimp  0x2d800
 840:	00 02 e0 00 	unimp  0x2e000
 844:	03 91 77 9f 	fbne  45e6c0 <RAM_END+0x35e6c0>
 848:	00 00 02 e0 	unimp  0x2e0
 84c:	00 00 02 fc 	unimp  0x2fc
 850:	00 01 51 00 	unimp  0x15100
 854:	00 02 fc 00 	unimp  0x2fc00
 858:	00 03 38 00 	unimp  0x33800
 85c:	01 51 00 00 	unknown
 860:	03 64 00 00 	unknown
 864:	03 6c 00 01 	unknown
 868:	51 00 00 03 	call  44000874 <RAM_END+0x43f00874>
 86c:	9c 00 00 03 	add  %g0, %g3, %sp
 870:	a0 00 01 51 	unknown
 874:	00 00 03 a0 	unimp  0x3a0
 878:	00 00 03 a8 	unimp  0x3a8
 87c:	00 03 91 7c 	unimp  0x3917c
 880:	06 00 00 00 	unknown
 884:	00 00 00 00 	unimp  0
 888:	00 00 00 01 	unimp  0x1
 88c:	50 00 00 01 	call  40000890 <RAM_END+0x3ff00890>
 890:	5c 00 03 91 	call  700016d4 <RAM_END+0x6ff016d4>
 894:	7c 06 00 00 	call  f0180894 <RAM_END+0xf0080894>
 898:	01 5c 00 00 	unknown
 89c:	01 90 00 01 	fbn  4008a0 <RAM_END+0x3008a0>
 8a0:	61 00 00 02 	call  840008a8 <RAM_END+0x83f008a8>
 8a4:	08 00 00 02 	unknown
 8a8:	14 00 03 91 	unknown
 8ac:	7c 06 00 00 	call  f01808ac <RAM_END+0xf00808ac>
 8b0:	02 14 00 00 	unknown
 8b4:	02 24 00 01 	unknown
 8b8:	5d 00 00 02 	call  740008c0 <RAM_END+0x73f008c0>
 8bc:	24 00 00 02 	unknown
 8c0:	38 00 01 5d 	unknown
 8c4:	00 00 02 40 	unimp  0x240
 8c8:	00 00 02 50 	unimp  0x250
 8cc:	00 03 91 7c 	unimp  0x3917c
 8d0:	06 00 00 02 	unknown
 8d4:	50 00 00 02 	call  400008dc <RAM_END+0x3ff008dc>
 8d8:	58 00 01 61 	call  60000e5c <RAM_END+0x5ff00e5c>
 8dc:	00 00 02 58 	unimp  0x258
 8e0:	00 00 02 8c 	unimp  0x28c
 8e4:	00 01 61 00 	unimp  0x16100
 8e8:	00 02 cc 00 	unimp  0x2cc00
 8ec:	00 02 e0 00 	unimp  0x2e000
 8f0:	03 91 7c 06 	fbne  45f908 <RAM_END+0x35f908>
 8f4:	00 00 02 e0 	unimp  0x2e0
 8f8:	00 00 03 04 	unimp  0x304
 8fc:	00 01 5d 00 	unimp  0x15d00
 900:	00 03 04 00 	unimp  0x30400
 904:	00 03 14 00 	unimp  0x31400
 908:	01 5d 00 00 	unknown
 90c:	03 84 00 00 	fbne  10090c <RAM_END+0x90c>
 910:	03 88 00 01 	fbne  200914 <RAM_END+0x100914>
 914:	61 00 00 03 	call  84000920 <RAM_END+0x83f00920>
 918:	88 00 00 03 	add  %g0, %g3, %g4
 91c:	9c 00 01 61 	unknown
	...
 928:	00 00 02 d8 	unimp  0x2d8
 92c:	00 00 02 e0 	unimp  0x2e0
 930:	00 02 30 9f 	unimp  0x2309f
 934:	00 00 02 e0 	unimp  0x2e0
 938:	00 00 03 04 	unimp  0x304
 93c:	00 01 64 00 	unimp  0x16400
 940:	00 03 04 00 	unimp  0x30400
 944:	00 03 38 00 	unimp  0x33800
 948:	01 64 00 00 	unknown
	...
 954:	00 48 00 00 	unknown
 958:	00 8c 00 02 	bn  300960 <RAM_END+0x200960>
 95c:	30 9f 00 00 	b,a   7c095c <RAM_END+0x6c095c>
 960:	00 90 00 00 	bn  400960 <RAM_END+0x300960>
 964:	00 d8 00 01 	unknown
 968:	68 00 00 00 	call  a0000968 <RAM_END+0x9ff00968>
 96c:	d8 00 00 01 	ld  [ %g0 + %g1 ], %o4
 970:	2c 00 01 68 	unknown
 974:	00 00 01 2c 	unimp  0x12c
 978:	00 00 01 c4 	unimp  0x1c4
 97c:	00 01 68 00 	unimp  0x16800
 980:	00 01 c4 00 	unimp  0x1c400
 984:	00 02 bc 00 	unimp  0x2bc00
 988:	01 68 00 00 	unknown
 98c:	02 bc 00 00 	be  fff0098c <RAM_END+0xffe0098c>
 990:	03 7c 00 01 	unknown
 994:	68 00 00 03 	call  a00009a0 <RAM_END+0x9ff009a0>
 998:	7c 00 00 03 	call  f00009a4 <RAM_END+0xeff009a4>
 99c:	94 00 01 68 	unknown
 9a0:	00 00 03 94 	unimp  0x394
 9a4:	00 00 03 a8 	unimp  0x3a8
 9a8:	00 01 68 00 	unimp  0x16800
	...
 9b4:	00 00 c8 00 	unimp  0xc800
 9b8:	00 00 cc 00 	unimp  0xcc00
 9bc:	01 53 00 00 	unknown
	...
 9c8:	00 c8 00 00 	unknown
 9cc:	00 cc 00 05 	unknown
 9d0:	73 00 32 24 	call  cc00d260 <RAM_END+0xcbf0d260>
 9d4:	9f 00 00 00 	taddcc  %g0, %g0, %o7
	...
 9e0:	b4 00 00 00 	add  %g0, %g0, %i2
 9e4:	c0 00 06 9e 	ld  [ %g0 + %fp ], %g0
 9e8:	04 a0 00 00 	ble  ff8009e8 <RAM_END+0xff7009e8>
 9ec:	00 00 00 00 	unimp  0
 9f0:	c8 00 00 00 	ld  [ %g0 ], %g4
 9f4:	f8 00 06 9e 	ld  [ %g0 + %fp ], %i4
 9f8:	04 a0 00 00 	ble  ff8009f8 <RAM_END+0xff7009f8>
 9fc:	00 00 00 00 	unimp  0
	...
 a08:	c8 00 00 00 	ld  [ %g0 ], %g4
 a0c:	cc 00 0e 73 	ld  [ %g0 + %l3 ], %g6
 a10:	00 32 24 32 	unimp  0xfff22432
 a14:	24 11 80 80 	unknown
 a18:	80 80 7a 22 	addcc  %g1, -1502, %g0
 a1c:	9f 00 00 00 	taddcc  %g0, %g0, %o7
 a20:	00 00 00 00 	unimp  0
 a24:	00 00 00 03 	unimp  0x3
 a28:	88 00 00 03 	add  %g0, %g3, %g4
 a2c:	9c 00 03 08 	unknown
 a30:	2d 9f 00 00 	fbg,a   7c0a30 <RAM_END+0x6c0a30>
 a34:	00 00 00 00 	unimp  0
 a38:	00 00 00 00 	unimp  0
 a3c:	03 8c 00 00 	fbne  300a3c <RAM_END+0x200a3c>
 a40:	03 9c 00 03 	fbne  700a4c <RAM_END+0x600a4c>
 a44:	08 2d 9f 00 	unknown
	...
 a50:	00 03 8c 00 	unimp  0x38c00
 a54:	00 03 90 00 	unimp  0x39000
 a58:	05 71 00 32 	unknown
 a5c:	24 9f 00 00 	ble,a   7c0a5c <RAM_END+0x6c0a5c>
 a60:	00 00 00 00 	unimp  0
 a64:	00 00 00 00 	unimp  0
 a68:	03 8c 00 00 	fbne  300a68 <RAM_END+0x200a68>
 a6c:	03 9c 00 06 	fbne  700a84 <RAM_END+0x600a84>
 a70:	9e 04 a0 00 	add  %l2, 0, %o7
	...
 a80:	03 8c 00 00 	fbne  300a80 <RAM_END+0x200a80>
 a84:	03 90 00 0e 	fbne  400abc <RAM_END+0x300abc>
 a88:	71 00 32 24 	call  c400d318 <RAM_END+0xc3f0d318>
 a8c:	32 24 11 80 	unknown
 a90:	80 80 80 7a 	unknown
 a94:	22 9f 00 00 	be,a   7c0a94 <RAM_END+0x6c0a94>
 a98:	00 00 00 00 	unimp  0
 a9c:	00 00 00 00 	unimp  0
 aa0:	03 8c 00 00 	fbne  300aa0 <RAM_END+0x200aa0>
 aa4:	03 90 00 01 	fbne  400aa8 <RAM_END+0x300aa8>
 aa8:	51 00 00 00 	call  44000aa8 <RAM_END+0x43f00aa8>
 aac:	00 00 00 00 	unimp  0
 ab0:	00 00 00 03 	unimp  0x3
 ab4:	6c 00 00 03 	call  b0000ac0 <RAM_END+0xaff00ac0>
 ab8:	84 00 03 08 	unknown
 abc:	25 9f 00 00 	fblg,a   7c0abc <RAM_END+0x6c0abc>
 ac0:	00 00 00 00 	unimp  0
 ac4:	00 00 00 00 	unimp  0
 ac8:	03 70 00 00 	unknown
 acc:	03 84 00 03 	fbne  100ad8 <RAM_END+0xad8>
 ad0:	08 25 9f 00 	unknown
	...
 adc:	00 03 70 00 	unimp  0x37000
 ae0:	00 03 74 00 	unimp  0x37400
 ae4:	05 71 00 32 	unknown
 ae8:	24 9f 00 00 	ble,a   7c0ae8 <RAM_END+0x6c0ae8>
 aec:	00 00 00 00 	unimp  0
 af0:	00 00 00 00 	unimp  0
 af4:	03 70 00 00 	unknown
 af8:	03 84 00 06 	fbne  100b10 <RAM_END+0xb10>
 afc:	9e 04 a0 00 	add  %l2, 0, %o7
	...
 b0c:	03 70 00 00 	unknown
 b10:	03 74 00 0e 	unknown
 b14:	71 00 32 24 	call  c400d3a4 <RAM_END+0xc3f0d3a4>
 b18:	32 24 11 80 	unknown
 b1c:	80 80 80 7a 	unknown
 b20:	22 9f 00 00 	be,a   7c0b20 <RAM_END+0x6c0b20>
 b24:	00 00 00 00 	unimp  0
 b28:	00 00 00 00 	unimp  0
 b2c:	03 70 00 00 	unknown
 b30:	03 74 00 01 	unknown
 b34:	51 00 00 00 	call  44000b34 <RAM_END+0x43f00b34>
 b38:	00 00 00 00 	unimp  0
 b3c:	00 00 00 01 	unimp  0x1
 b40:	1c 00 00 01 	unknown
 b44:	2c 00 01 62 	unknown
	...
 b50:	00 00 01 20 	unimp  0x120
 b54:	00 00 01 24 	unimp  0x124
 b58:	00 01 51 00 	unimp  0x15100
	...
 b64:	00 01 20 00 	unimp  0x12000
 b68:	00 01 2c 00 	unimp  0x12c00
 b6c:	01 62 00 00 	unknown
	...
 b78:	01 20 00 00 	sethi  %hi(0x80000000), %g0
 b7c:	01 24 00 05 	sethi  %hi(0x90001400), %g0
 b80:	71 00 32 24 	call  c400d410 <RAM_END+0xc3f0d410>
 b84:	9f 00 00 00 	taddcc  %g0, %g0, %o7
 b88:	00 00 00 00 	unimp  0
 b8c:	00 00 00 01 	unimp  0x1
 b90:	20 00 00 01 	unknown
 b94:	2c 00 06 9e 	unknown
 b98:	04 a0 00 00 	ble  ff800b98 <RAM_END+0xff700b98>
 b9c:	00 00 00 00 	unimp  0
 ba0:	00 00 00 00 	unimp  0
 ba4:	00 00 00 01 	unimp  0x1
 ba8:	20 00 00 01 	unknown
 bac:	24 00 0e 71 	unknown
 bb0:	00 32 24 32 	unimp  0xfff22432
 bb4:	24 11 80 80 	unknown
 bb8:	80 80 7a 22 	addcc  %g1, -1502, %g0
 bbc:	9f 00 00 00 	taddcc  %g0, %g0, %o7
 bc0:	00 00 00 00 	unimp  0
 bc4:	00 00 00 01 	unimp  0x1
 bc8:	b0 00 00 01 	add  %g0, %g1, %i0
 bcc:	b4 00 05 7d 	unknown
 bd0:	00 32 24 9f 	unimp  0xfff2249f
	...
 bdc:	00 00 01 b0 	unimp  0x1b0
 be0:	00 00 01 c4 	unimp  0x1c4
 be4:	00 06 9e 04 	unimp  0x69e04
 be8:	a0 00 00 00 	add  %g0, %g0, %l0
	...
 bf4:	00 00 01 b0 	unimp  0x1b0
 bf8:	00 00 01 b4 	unimp  0x1b4
 bfc:	00 0e 7d 00 	unimp  0xe7d00
 c00:	32 24 32 24 	unknown
 c04:	11 80 80 80 	fb  20e04 <ISR_STACK_SIZE+0x1ce04>
 c08:	80 7a 22 9f 	sdiv  %o0, 0x29f, %g0
	...
 c14:	00 00 01 b0 	unimp  0x1b0
 c18:	00 00 01 b4 	unimp  0x1b4
 c1c:	00 01 5d 00 	unimp  0x15d00
	...
 c28:	00 02 ac 00 	unimp  0x2ac00
 c2c:	00 02 c4 00 	unimp  0x2c400
 c30:	03 91 7c 06 	fbne  45fc48 <RAM_END+0x35fc48>
 c34:	00 00 00 00 	unimp  0
 c38:	00 00 00 00 	unimp  0
 c3c:	00 00 02 b0 	unimp  0x2b0
 c40:	00 00 02 b4 	unimp  0x2b4
 c44:	00 01 51 00 	unimp  0x15100
	...
 c50:	00 02 b0 00 	unimp  0x2b000
 c54:	00 02 b4 00 	unimp  0x2b400
 c58:	05 71 00 32 	unknown
 c5c:	24 9f 00 00 	ble,a   7c0c5c <RAM_END+0x6c0c5c>
 c60:	00 00 00 00 	unimp  0
 c64:	00 00 00 00 	unimp  0
 c68:	02 b0 00 00 	be  ffc00c68 <RAM_END+0xffb00c68>
 c6c:	02 c4 00 06 	unknown
 c70:	9e 04 a0 00 	add  %l2, 0, %o7
	...
 c80:	02 b0 00 00 	be  ffc00c80 <RAM_END+0xffb00c80>
 c84:	02 b4 00 0e 	be  ffd00cbc <RAM_END+0xffc00cbc>
 c88:	71 00 32 24 	call  c400d518 <RAM_END+0xc3f0d518>
 c8c:	32 24 11 80 	unknown
 c90:	80 80 80 7a 	unknown
 c94:	22 9f 00 00 	be,a   7c0c94 <RAM_END+0x6c0c94>
 c98:	00 00 00 00 	unimp  0
 c9c:	00 00 00 00 	unimp  0
 ca0:	02 e8 00 00 	unknown
 ca4:	02 f8 00 01 	unknown
 ca8:	61 00 00 02 	call  84000cb0 <RAM_END+0x83f00cb0>
 cac:	f8 00 00 03 	ld  [ %g0 + %g3 ], %i4
 cb0:	14 00 01 53 	unknown
 cb4:	00 00 03 14 	unimp  0x314
 cb8:	00 00 03 58 	unimp  0x358
 cbc:	00 02 71 00 	unimp  0x27100
	...
 cc8:	00 00 03 a8 	unimp  0x3a8
 ccc:	00 00 03 b8 	unimp  0x3b8
 cd0:	00 01 58 00 	unimp  0x15800
 cd4:	00 03 b8 00 	unimp  0x3b800
 cd8:	00 03 dc 00 	unimp  0x3dc00
 cdc:	01 51 00 00 	unknown
 ce0:	03 dc 00 00 	cb123  700ce0 <RAM_END+0x600ce0>
 ce4:	04 00 00 01 	unknown
 ce8:	51 00 00 00 	call  44000ce8 <RAM_END+0x43f00ce8>
 cec:	00 00 00 00 	unimp  0
 cf0:	00 00 00 03 	unimp  0x3
 cf4:	a8 00 00 03 	add  %g0, %g3, %l4
 cf8:	cc 00 01 59 	ld  [ %g0 + %i1 ], %g6
 cfc:	00 00 03 cc 	unimp  0x3cc
 d00:	00 00 03 dc 	unimp  0x3dc
 d04:	00 01 59 00 	unimp  0x15900
 d08:	00 03 dc 00 	unimp  0x3dc00
 d0c:	00 03 f8 00 	unimp  0x3f800
 d10:	01 59 00 00 	unknown
 d14:	03 f8 00 00 	cb123  ffe00d14 <RAM_END+0xffd00d14>
 d18:	04 00 00 01 	unknown
 d1c:	59 00 00 00 	call  64000d1c <RAM_END+0x63f00d1c>
 d20:	00 00 00 00 	unimp  0
 d24:	00 00 00 03 	unimp  0x3
 d28:	bc 00 00 03 	add  %g0, %g3, %fp
 d2c:	c0 00 06 72 	ld  [ %g0 + %l2 ], %g0
 d30:	00 78 00 1c 	unknown
 d34:	9f 00 00 03 	taddcc  %g0, %g3, %o7
 d38:	c0 00 00 03 	ld  [ %g0 + %g3 ], %g0
 d3c:	d0 00 01 58 	ld  [ %g0 + %i0 ], %o0
 d40:	00 00 03 d0 	unimp  0x3d0
 d44:	00 00 03 d4 	unimp  0x3d4
 d48:	00 06 72 00 	unimp  0x67200
 d4c:	78 00 1c 9f 	call  e0007fc8 <RAM_END+0xdff07fc8>
 d50:	00 00 03 d4 	unimp  0x3d4
 d54:	00 00 03 ec 	unimp  0x3ec
 d58:	00 01 58 00 	unimp  0x15800
 d5c:	00 03 f8 00 	unimp  0x3f800
 d60:	00 04 00 00 	unimp  0x40000
 d64:	01 58 00 00 	unknown
	...
 d70:	04 00 00 00 	unknown
 d74:	04 0c 00 01 	unknown
 d78:	58 00 00 04 	call  60000d88 <RAM_END+0x5ff00d88>
 d7c:	3c 00 00 04 	unknown
 d80:	4c 00 01 58 	call  300012e0 <RAM_END+0x2ff012e0>
 d84:	00 00 00 00 	unimp  0
 d88:	00 00 00 00 	unimp  0
 d8c:	00 00 04 00 	unimp  0x400
 d90:	00 00 04 28 	unimp  0x428
 d94:	00 01 59 00 	unimp  0x15900
 d98:	00 04 3c 00 	unimp  0x43c00
 d9c:	00 04 4c 00 	unimp  0x44c00
 da0:	01 59 00 00 	unknown
	...
 dac:	04 00 00 00 	unknown
 db0:	04 2c 00 01 	unknown
 db4:	58 00 00 04 	call  60000dc4 <RAM_END+0x5ff00dc4>
 db8:	2c 00 00 04 	unknown
 dbc:	3c 00 03 78 	unknown
 dc0:	01 9f 00 00 	fbn  7c0dc0 <RAM_END+0x6c0dc0>
 dc4:	04 3c 00 00 	unknown
 dc8:	04 4c 00 01 	unknown
 dcc:	58 00 00 04 	call  60000ddc <RAM_END+0x5ff00ddc>
 dd0:	4c 00 00 04 	call  30000de0 <RAM_END+0x2ff00de0>
 dd4:	84 00 01 58 	unknown
	...
 de0:	00 00 04 00 	unimp  0x400
 de4:	00 00 04 30 	unimp  0x430
 de8:	00 01 59 00 	unimp  0x15900
 dec:	00 04 30 00 	unimp  0x43000
 df0:	00 04 3c 00 	unimp  0x43c00
 df4:	03 79 01 9f 	unknown
 df8:	00 00 04 3c 	unimp  0x43c
 dfc:	00 00 04 4c 	unimp  0x44c
 e00:	00 01 59 00 	unimp  0x15900
 e04:	00 04 4c 00 	unimp  0x44c00
 e08:	00 04 50 00 	unimp  0x45000
 e0c:	01 59 00 00 	unknown
 e10:	04 50 00 00 	unknown
 e14:	04 84 00 01 	ble  100e18 <RAM_END+0xe18>
 e18:	59 00 00 00 	call  64000e18 <RAM_END+0x63f00e18>
 e1c:	00 00 00 00 	unimp  0
 e20:	00 00 00 04 	unimp  0x4
 e24:	4c 00 00 04 	call  30000e34 <RAM_END+0x2ff00e34>
 e28:	64 00 06 9e 	call  900028a0 <RAM_END+0x8ff028a0>
 e2c:	04 80 80 80 	ble  2102c <ISR_STACK_SIZE+0x1d02c>
 e30:	80 00 00 04 	add  %g0, %g4, %g0
 e34:	64 00 00 04 	call  90000e44 <RAM_END+0x8ff00e44>
 e38:	84 00 06 9e 	unknown
 e3c:	04 80 80 80 	ble  2103c <ISR_STACK_SIZE+0x1d03c>
 e40:	80 00 00 00 	add  %g0, %g0, %g0
 e44:	00 00 00 00 	unimp  0
 e48:	00 00 00 04 	unimp  0x4
 e4c:	64 00 00 04 	call  90000e5c <RAM_END+0x8ff00e5c>
 e50:	70 00 01 51 	call  c0001394 <RAM_END+0xbff01394>
 e54:	00 00 00 00 	unimp  0
	...
 e60:	00 00 00 18 	unimp  0x18
 e64:	00 01 58 00 	unimp  0x15800
 e68:	00 00 28 00 	unimp  0x2800
 e6c:	00 00 40 00 	unimp  0x4000
 e70:	01 58 00 00 	unknown
	...
 e7c:	00 14 00 00 	unimp  0x140000
 e80:	00 28 00 05 	unimp  0xffe80005
 e84:	03 00 00 1e 	sethi  %hi(0x7800), %g1
 e88:	b8 00 00 00 	add  %g0, %g0, %i4
 e8c:	38 00 00 00 	unknown
 e90:	50 00 01 53 	call  400013dc <RAM_END+0x3ff013dc>
 e94:	00 00 00 00 	unimp  0
 e98:	00 00 00 00 	unimp  0
 e9c:	00 00 00 14 	unimp  0x14
 ea0:	00 00 00 18 	unimp  0x18
 ea4:	00 0a 03 00 	unimp  0xa0300
 ea8:	00 1e b8 06 	unimp  0x1eb806
 eac:	78 00 22 9f 	call  e0009928 <RAM_END+0xdff09928>
 eb0:	00 00 00 18 	unimp  0x18
 eb4:	00 00 00 1c 	unimp  0x1c
 eb8:	00 01 52 00 	unimp  0x15200
 ebc:	00 00 1c 00 	unimp  0x1c00
 ec0:	00 00 20 00 	unimp  0x2000
 ec4:	03 72 71 9f 	unknown
 ec8:	00 00 00 38 	unimp  0x38
 ecc:	00 00 00 40 	unimp  0x40
 ed0:	00 06 73 00 	unimp  0x67300
 ed4:	78 00 22 9f 	call  e0009950 <RAM_END+0xdff09950>
 ed8:	00 00 00 40 	unimp  0x40
 edc:	00 00 00 44 	unimp  0x44
 ee0:	00 01 52 00 	unimp  0x15200
 ee4:	00 00 44 00 	unimp  0x4400
 ee8:	00 00 48 00 	unimp  0x4800
 eec:	03 72 71 9f 	unknown
	...
 ef8:	00 00 00 74 	unimp  0x74
 efc:	00 00 00 84 	unimp  0x84
 f00:	00 01 58 00 	unimp  0x15800
 f04:	00 00 a0 00 	unimp  0xa000
 f08:	00 00 d0 00 	unimp  0xd000
 f0c:	01 53 00 00 	unknown
 f10:	00 d0 00 00 	unknown
 f14:	01 00 00 01 	sethi  %hi(0x400), %g0
 f18:	58 00 00 00 	call  60000f18 <RAM_END+0x5ff00f18>
 f1c:	00 00 00 00 	unimp  0
 f20:	00 00 00 00 	unimp  0
 f24:	74 00 00 00 	call  d0000f24 <RAM_END+0xcff00f24>
 f28:	84 00 01 59 	unknown
 f2c:	00 00 00 a0 	unimp  0xa0
 f30:	00 00 00 c4 	unimp  0xc4
 f34:	00 01 54 00 	unimp  0x15400
 f38:	00 00 c4 00 	unimp  0xc400
 f3c:	00 01 00 00 	unimp  0x10000
 f40:	01 59 00 00 	unknown
	...
 f4c:	00 74 00 00 	unknown
 f50:	00 a0 00 01 	bn  ff800f54 <RAM_END+0xff700f54>
 f54:	5a 00 00 00 	call  68000f54 <RAM_END+0x67f00f54>
 f58:	d4 00 00 00 	ld  [ %g0 ], %o2
 f5c:	e0 00 03 7a 	ld  [ %g0 + %i2 ], %l0
 f60:	7f 9f 00 00 	call  fe7c0f60 <RAM_END+0xfe6c0f60>
 f64:	00 00 00 00 	unimp  0
 f68:	00 00 00 00 	unimp  0
 f6c:	00 78 00 00 	unknown
 f70:	00 84 00 01 	bn  100f74 <RAM_END+0xf74>
 f74:	58 00 00 00 	call  60000f74 <RAM_END+0x5ff00f74>
 f78:	84 00 00 00 	add  %g0, %g0, %g2
 f7c:	a0 00 01 53 	unknown
 f80:	00 00 00 d4 	unimp  0xd4
 f84:	00 00 01 00 	unimp  0x100
 f88:	00 01 53 00 	unimp  0x15300
	...
 f94:	00 00 78 00 	unimp  0x7800
 f98:	00 00 84 00 	unimp  0x8400
 f9c:	01 59 00 00 	unknown
 fa0:	00 84 00 00 	bn  100fa0 <RAM_END+0xfa0>
 fa4:	00 a0 00 01 	bn  ff800fa8 <RAM_END+0xff700fa8>
 fa8:	54 00 00 00 	call  50000fa8 <RAM_END+0x4ff00fa8>
 fac:	d4 00 00 01 	ld  [ %g0 + %g1 ], %o2
 fb0:	00 00 01 54 	unimp  0x154
	...
 fbc:	00 00 00 d4 	unimp  0xd4
 fc0:	00 00 00 e0 	unimp  0xe0
 fc4:	00 01 53 00 	unimp  0x15300
	...
 fd0:	00 00 d4 00 	unimp  0xd400
 fd4:	00 00 e0 00 	unimp  0xe000
 fd8:	01 54 00 00 	unknown
 fdc:	00 00 00 00 	unimp  0
	...

Disassembly of section .debug_pubtypes:

00000000 <.debug_pubtypes>:
   0:	00 00 00 53 	unimp  0x53
   4:	00 02 00 00 	unimp  0x20000
   8:	00 00 00 00 	unimp  0
   c:	05 2d 00 00 	sethi  %hi(0xb4000000), %g2
  10:	00 25 53 6f 	unimp  0xffe5536f
  14:	63 6c 69 62 	call  8db1a59c <RAM_END+0x8da1a59c>
  18:	54 69 6d 65 	call  51a5b5ac <RAM_END+0x5195b5ac>
  1c:	72 52 65 67 	call  c94995b8 <RAM_END+0xc93995b8>
  20:	69 73 74 65 	call  a5cdd1b4 <RAM_END+0xa5bdd1b4>
  24:	72 73 00 00 	call  c9cc0024 <RAM_END+0xc9bc0024>
  28:	00 00 50 53 	unimp  0x5053
  2c:	6f 63 6c 69 	call  bd8db1d0 <RAM_END+0xbd7db1d0>
  30:	62 54 69 6d 	call  8951a5e4 <RAM_END+0x8941a5e4>
  34:	65 72 4d 6f 	call  95c935f0 <RAM_END+0x95b935f0>
  38:	64 65 00 00 	call  91940038 <RAM_END+0x91840038>
  3c:	00 00 69 75 	unimp  0x6975
  40:	69 6e 74 33 	call  a5b9d10c <RAM_END+0xa5a9d10c>
  44:	32 5f 74 00 	unknown
  48:	00 00 00 9e 	unimp  0x9e
  4c:	73 69 7a 65 	call  cda5e9e0 <RAM_END+0xcd95e9e0>
  50:	5f 74 00 00 	call  7dd00050 <RAM_END+0x7dc00050>
  54:	00 00 00 00 	unimp  0
  58:	00 00 0e 00 	unimp  0xe00
  5c:	02 00 00 05 	unknown
  60:	2d 00 00 00 	sethi  %hi(0), %l6
  64:	4c 00 00 00 	call  30000064 <RAM_END+0x2ff00064>
  68:	00 00 00 00 	unimp  0
  6c:	7e 00 02 00 	call  f800086c <RAM_END+0xf7f0086c>
  70:	00 05 79 00 	unimp  0x57900
  74:	00 09 ab 00 	unimp  0x9ab00
  78:	00 00 21 75 	unimp  0x2175
  7c:	69 6e 74 33 	call  a5b9d148 <RAM_END+0xa5a9d148>
  80:	32 5f 74 00 	unknown
  84:	00 00 00 3a 	unimp  0x3a
  88:	75 69 6e 74 	call  d5a5ba58 <RAM_END+0xd595ba58>
  8c:	38 5f 74 00 	unknown
  90:	00 00 00 61 	unimp  0x61
  94:	73 69 7a 65 	call  cda5ea28 <RAM_END+0xcd95ea28>
  98:	5f 74 00 00 	call  7dd00098 <RAM_END+0x7dc00098>
  9c:	00 00 6c 53 	unimp  0x6c53
  a0:	6f 63 6c 69 	call  bd8db244 <RAM_END+0xbd7db244>
  a4:	62 54 74 79 	call  8951d288 <RAM_END+0x8941d288>
  a8:	52 65 67 69 	call  49959e4c <RAM_END+0x49859e4c>
  ac:	73 74 65 72 	call  cdd19674 <RAM_END+0xcdc19674>
  b0:	73 00 00 00 	call  cc0000b0 <RAM_END+0xcbf000b0>
  b4:	00 91 69 72 	bn  45a67c <RAM_END+0x35a67c>
  b8:	71 5f 68 61 	call  c57da23c <RAM_END+0xc56da23c>
  bc:	6e 64 6c 65 	call  b991b250 <RAM_END+0xb981b250>
  c0:	72 5f 74 00 	call  c97dd0c0 <RAM_END+0xc96dd0c0>
  c4:	00 00 00 a8 	unimp  0xa8
  c8:	73 79 73 5f 	call  cde5ce44 <RAM_END+0xcdd5ce44>
  cc:	68 61 6e 64 	call  a185ba5c <RAM_END+0xa175ba5c>
  d0:	6c 65 72 5f 	call  b195ca4c <RAM_END+0xb185ca4c>
  d4:	74 00 00 00 	call  d00000d4 <RAM_END+0xcff000d4>
  d8:	00 d0 65 78 	unknown
  dc:	5f 68 61 6e 	call  7da18694 <RAM_END+0x7d918694>
  e0:	64 6c 65 72 	call  91b196a8 <RAM_END+0x91a196a8>
  e4:	5f 74 00 00 	call  7dd000e4 <RAM_END+0x7dc000e4>
  e8:	00 00 00 00 	unimp  0
  ec:	00 00 68 00 	unimp  0x6800
  f0:	02 00 00 0f 	unknown
  f4:	24 00 00 06 	unknown
  f8:	2f 00 00 00 	sethi  %hi(0), %l7
  fc:	21 5f 5f 67 	unknown
 100:	6e 75 63 5f 	call  b9d58e7c <RAM_END+0xb9c58e7c>
 104:	76 61 5f 6c 	call  d9857eb4 <RAM_END+0xd9757eb4>
 108:	69 73 74 00 	call  a5cdd108 <RAM_END+0xa5bdd108>
 10c:	00 00 00 32 	unimp  0x32
 110:	76 61 5f 6c 	call  d9857ec0 <RAM_END+0xd9757ec0>
 114:	69 73 74 00 	call  a5cdd114 <RAM_END+0xa5bdd114>
 118:	00 00 00 3d 	unimp  0x3d
 11c:	75 69 6e 74 	call  d5a5baec <RAM_END+0xd595baec>
 120:	33 32 5f 74 	sethi  %hi(0xc97dd000), %i1
 124:	00 00 00 00 	unimp  0
 128:	56 75 69 6e 	call  59d5a6e0 <RAM_END+0x59c5a6e0>
 12c:	74 38 5f 74 	call  d0e17efc <RAM_END+0xd0d17efc>
 130:	00 00 00 00 	unimp  0
 134:	7d 73 69 7a 	call  f5cda71c <RAM_END+0xf5bda71c>
 138:	65 5f 74 00 	call  957dd138 <RAM_END+0x956dd138>
 13c:	00 00 00 88 	unimp  0x88
 140:	53 6f 63 6c 	call  4dbd8ef0 <RAM_END+0x4dad8ef0>
 144:	69 62 54 74 	call  a5895314 <RAM_END+0xa5795314>
 148:	79 52 65 67 	call  e54996e4 <RAM_END+0xe53996e4>
 14c:	69 73 74 65 	call  a5cdd2e0 <RAM_END+0xa5bdd2e0>
 150:	72 73 00 00 	call  c9cc0150 <RAM_END+0xc9bc0150>
 154:	00 00 00 00 	unimp  0
 158:	00 00 26 00 	unimp  0x2600
 15c:	02 00 00 15 	unknown
 160:	53 00 00 02 	call  4c000168 <RAM_END+0x4bf00168>
 164:	57 00 00 00 	call  5c000164 <RAM_END+0x5bf00164>
 168:	21 75 69 6e 	unknown
 16c:	74 33 32 5f 	call  d0cccae8 <RAM_END+0xd0bccae8>
 170:	74 00 00 00 	call  d0000170 <RAM_END+0xcff00170>
 174:	00 56 73 69 	unknown
 178:	7a 65 5f 74 	call  e9957f48 <RAM_END+0xe9857f48>
 17c:	00 00 00 00 	unimp  0
	...

Disassembly of section .debug_ranges:

00000000 <.debug_ranges>:
   0:	00 00 00 f8 	unimp  0xf8
   4:	00 00 00 fc 	unimp  0xfc
   8:	00 00 01 00 	unimp  0x100
   c:	00 00 01 0c 	unimp  0x10c
	...
  18:	00 00 00 f8 	unimp  0xf8
  1c:	00 00 00 fc 	unimp  0xfc
  20:	00 00 01 00 	unimp  0x100
  24:	00 00 01 0c 	unimp  0x10c
	...
  30:	00 00 01 10 	unimp  0x110
  34:	00 00 01 14 	unimp  0x114
  38:	00 00 01 18 	unimp  0x118
  3c:	00 00 01 20 	unimp  0x120
	...
  48:	00 00 01 10 	unimp  0x110
  4c:	00 00 01 14 	unimp  0x114
  50:	00 00 01 18 	unimp  0x118
  54:	00 00 01 20 	unimp  0x120
	...
  60:	00 00 00 08 	unimp  0x8
  64:	00 00 00 0c 	unimp  0xc
  68:	00 00 00 10 	unimp  0x10
  6c:	00 00 00 10 	unimp  0x10
	...
  78:	00 00 00 08 	unimp  0x8
  7c:	00 00 00 0c 	unimp  0xc
  80:	00 00 00 10 	unimp  0x10
  84:	00 00 00 10 	unimp  0x10
	...
  90:	00 00 00 18 	unimp  0x18
  94:	00 00 00 1c 	unimp  0x1c
  98:	00 00 00 20 	unimp  0x20
  9c:	00 00 00 28 	unimp  0x28
	...
  a8:	00 00 00 1c 	unimp  0x1c
  ac:	00 00 00 1c 	unimp  0x1c
  b0:	00 00 00 20 	unimp  0x20
  b4:	00 00 00 28 	unimp  0x28
	...
  c0:	00 00 00 1c 	unimp  0x1c
  c4:	00 00 00 1c 	unimp  0x1c
  c8:	00 00 00 20 	unimp  0x20
  cc:	00 00 00 28 	unimp  0x28
	...
  d8:	00 00 00 48 	unimp  0x48
  dc:	00 00 00 50 	unimp  0x50
  e0:	00 00 00 54 	unimp  0x54
  e4:	00 00 00 58 	unimp  0x58
	...
  f0:	00 00 00 48 	unimp  0x48
  f4:	00 00 00 50 	unimp  0x50
  f8:	00 00 00 54 	unimp  0x54
  fc:	00 00 00 58 	unimp  0x58
	...
 108:	00 00 00 4c 	unimp  0x4c
 10c:	00 00 00 50 	unimp  0x50
 110:	00 00 00 58 	unimp  0x58
 114:	00 00 00 58 	unimp  0x58
	...
 120:	00 00 00 4c 	unimp  0x4c
 124:	00 00 00 50 	unimp  0x50
 128:	00 00 00 58 	unimp  0x58
 12c:	00 00 00 58 	unimp  0x58
	...
 138:	00 00 00 b0 	unimp  0xb0
 13c:	00 00 00 b4 	unimp  0xb4
 140:	00 00 01 1c 	unimp  0x11c
 144:	00 00 01 20 	unimp  0x120
 148:	00 00 01 10 	unimp  0x110
 14c:	00 00 01 14 	unimp  0x114
 150:	00 00 01 04 	unimp  0x104
 154:	00 00 01 08 	unimp  0x108
 158:	00 00 00 fc 	unimp  0xfc
 15c:	00 00 01 00 	unimp  0x100
 160:	00 00 00 d0 	unimp  0xd0
 164:	00 00 00 d4 	unimp  0xd4
 168:	00 00 00 c4 	unimp  0xc4
 16c:	00 00 00 c8 	unimp  0xc8
 170:	00 00 00 b8 	unimp  0xb8
 174:	00 00 00 bc 	unimp  0xbc
	...
 180:	00 00 00 b0 	unimp  0xb0
 184:	00 00 00 b4 	unimp  0xb4
 188:	00 00 01 1c 	unimp  0x11c
 18c:	00 00 01 20 	unimp  0x120
 190:	00 00 01 10 	unimp  0x110
 194:	00 00 01 14 	unimp  0x114
 198:	00 00 01 04 	unimp  0x104
 19c:	00 00 01 08 	unimp  0x108
 1a0:	00 00 00 fc 	unimp  0xfc
 1a4:	00 00 01 00 	unimp  0x100
 1a8:	00 00 00 d0 	unimp  0xd0
 1ac:	00 00 00 d4 	unimp  0xd4
 1b0:	00 00 00 c4 	unimp  0xc4
 1b4:	00 00 00 c8 	unimp  0xc8
 1b8:	00 00 00 b8 	unimp  0xb8
 1bc:	00 00 00 bc 	unimp  0xbc
	...
 1c8:	00 00 00 b0 	unimp  0xb0
 1cc:	00 00 00 b4 	unimp  0xb4
 1d0:	00 00 00 fc 	unimp  0xfc
 1d4:	00 00 01 00 	unimp  0x100
	...
 1e0:	00 00 00 b0 	unimp  0xb0
 1e4:	00 00 00 b4 	unimp  0xb4
 1e8:	00 00 00 fc 	unimp  0xfc
 1ec:	00 00 01 00 	unimp  0x100
	...
 1f8:	00 00 00 b8 	unimp  0xb8
 1fc:	00 00 00 bc 	unimp  0xbc
 200:	00 00 01 20 	unimp  0x120
 204:	00 00 01 20 	unimp  0x120
 208:	00 00 01 04 	unimp  0x104
 20c:	00 00 01 08 	unimp  0x108
 210:	00 00 00 d4 	unimp  0xd4
 214:	00 00 00 d4 	unimp  0xd4
	...
 220:	00 00 00 b8 	unimp  0xb8
 224:	00 00 00 bc 	unimp  0xbc
 228:	00 00 01 20 	unimp  0x120
 22c:	00 00 01 20 	unimp  0x120
 230:	00 00 01 04 	unimp  0x104
 234:	00 00 01 08 	unimp  0x108
 238:	00 00 00 d4 	unimp  0xd4
 23c:	00 00 00 d4 	unimp  0xd4
	...
 248:	00 00 00 48 	unimp  0x48
 24c:	00 00 00 4c 	unimp  0x4c
 250:	00 00 00 d0 	unimp  0xd0
 254:	00 00 00 d4 	unimp  0xd4
 258:	00 00 00 c4 	unimp  0xc4
 25c:	00 00 00 cc 	unimp  0xcc
	...
 268:	00 00 00 48 	unimp  0x48
 26c:	00 00 00 4c 	unimp  0x4c
 270:	00 00 00 d4 	unimp  0xd4
 274:	00 00 00 d4 	unimp  0xd4
 278:	00 00 00 c8 	unimp  0xc8
 27c:	00 00 00 cc 	unimp  0xcc
	...
 288:	00 00 00 48 	unimp  0x48
 28c:	00 00 00 4c 	unimp  0x4c
 290:	00 00 00 d4 	unimp  0xd4
 294:	00 00 00 d4 	unimp  0xd4
 298:	00 00 00 c8 	unimp  0xc8
 29c:	00 00 00 cc 	unimp  0xcc
	...
 2a8:	00 00 00 84 	unimp  0x84
 2ac:	00 00 00 88 	unimp  0x88
 2b0:	00 00 03 88 	unimp  0x388
 2b4:	00 00 03 9c 	unimp  0x39c
	...
 2c0:	00 00 00 84 	unimp  0x84
 2c4:	00 00 00 88 	unimp  0x88
 2c8:	00 00 03 8c 	unimp  0x38c
 2cc:	00 00 03 9c 	unimp  0x39c
	...
 2d8:	00 00 00 84 	unimp  0x84
 2dc:	00 00 00 88 	unimp  0x88
 2e0:	00 00 03 8c 	unimp  0x38c
 2e4:	00 00 03 9c 	unimp  0x39c
	...
 2f0:	00 00 00 88 	unimp  0x88
 2f4:	00 00 00 8c 	unimp  0x8c
 2f8:	00 00 03 6c 	unimp  0x36c
 2fc:	00 00 03 78 	unimp  0x378
	...
 308:	00 00 00 88 	unimp  0x88
 30c:	00 00 00 8c 	unimp  0x8c
 310:	00 00 03 70 	unimp  0x370
 314:	00 00 03 78 	unimp  0x378
	...
 320:	00 00 00 88 	unimp  0x88
 324:	00 00 00 8c 	unimp  0x8c
 328:	00 00 03 70 	unimp  0x370
 32c:	00 00 03 78 	unimp  0x378
	...
 338:	00 00 01 20 	unimp  0x120
 33c:	00 00 01 24 	unimp  0x124
 340:	00 00 01 28 	unimp  0x128
 344:	00 00 01 28 	unimp  0x128
	...
 350:	00 00 01 20 	unimp  0x120
 354:	00 00 01 24 	unimp  0x124
 358:	00 00 01 28 	unimp  0x128
 35c:	00 00 01 28 	unimp  0x128
	...
 368:	00 00 01 ac 	unimp  0x1ac
 36c:	00 00 01 b4 	unimp  0x1b4
 370:	00 00 01 b8 	unimp  0x1b8
 374:	00 00 01 bc 	unimp  0x1bc
	...
 380:	00 00 01 b0 	unimp  0x1b0
 384:	00 00 01 b4 	unimp  0x1b4
 388:	00 00 01 bc 	unimp  0x1bc
 38c:	00 00 01 bc 	unimp  0x1bc
	...
 398:	00 00 01 b0 	unimp  0x1b0
 39c:	00 00 01 b4 	unimp  0x1b4
 3a0:	00 00 01 bc 	unimp  0x1bc
 3a4:	00 00 01 bc 	unimp  0x1bc
	...
 3b0:	00 00 02 b0 	unimp  0x2b0
 3b4:	00 00 02 b4 	unimp  0x2b4
 3b8:	00 00 02 b8 	unimp  0x2b8
 3bc:	00 00 02 b8 	unimp  0x2b8
	...
 3c8:	00 00 02 b0 	unimp  0x2b0
 3cc:	00 00 02 b4 	unimp  0x2b4
 3d0:	00 00 02 b8 	unimp  0x2b8
 3d4:	00 00 02 b8 	unimp  0x2b8
	...
 3e0:	00 00 04 3c 	unimp  0x43c
 3e4:	00 00 04 4c 	unimp  0x44c
 3e8:	00 00 04 64 	unimp  0x464
 3ec:	00 00 04 84 	unimp  0x484
	...
 3f8:	00 00 00 18 	unimp  0x18
 3fc:	00 00 00 20 	unimp  0x20
 400:	00 00 00 40 	unimp  0x40
 404:	00 00 00 48 	unimp  0x48
	...
